1 c000 4c JMP 00 00 00 24 fd 7
2 c5f5 a2 LDX 00 00 00 24 fd 10
3 c5f7 86 STX 00 00 00 26 fd 12
4 c5f9 86 STX 00 00 00 26 fd 15
5 c5fb 86 STX 00 00 00 26 fd 18
6 c5fd 20 JSR 00 00 00 26 fd 21
7 c72d ea NOP 00 00 00 26 fb 27
8 c72e 38 SEC 00 00 00 26 fb 29
9 c72f b0 BCS 00 00 00 27 fb 31
10 c735 ea NOP 00 00 00 27 fb 34
11 c736 18 CLC 00 00 00 27 fb 36
12 c737 b0 BCS 00 00 00 26 fb 38
13 c739 4c JMP 00 00 00 26 fb 40
14 c740 ea NOP 00 00 00 26 fb 43
15 c741 38 SEC 00 00 00 26 fb 45
16 c742 90 BCC 00 00 00 27 fb 47
17 c744 4c JMP 00 00 00 27 fb 49
18 c74b ea NOP 00 00 00 27 fb 52
19 c74c 18 CLC 00 00 00 27 fb 54
20 c74d 90 BCC 00 00 00 26 fb 56
21 c753 ea NOP 00 00 00 26 fb 59
22 c754 a9 LDA 00 00 00 26 fb 61
23 c756 f0 BEQ 00 00 00 26 fb 63
24 c75c ea NOP 00 00 00 26 fb 66
25 c75d a9 LDA 00 00 00 26 fb 68
26 c75f f0 BEQ 40 00 00 24 fb 70
27 c761 4c JMP 40 00 00 24 fb 72
28 c768 ea NOP 40 00 00 24 fb 75
29 c769 a9 LDA 40 00 00 24 fb 77
30 c76b d0 BNE 40 00 00 24 fb 79
31 c771 ea NOP 40 00 00 24 fb 82
32 c772 a9 LDA 40 00 00 24 fb 84
33 c774 d0 BNE 00 00 00 26 fb 86
34 c776 4c JMP 00 00 00 26 fb 88
35 c77d ea NOP 00 00 00 26 fb 91
36 c77e a9 LDA 00 00 00 26 fb 93
37 c780 85 STA ff 00 00 a4 fb 95
38 c782 24 BIT ff 00 00 a4 fb 98
39 c784 70 BVS ff 00 00 e4 fb 101
40 c78a ea NOP ff 00 00 e4 fb 104
41 c78b 24 BIT ff 00 00 e4 fb 106
42 c78d 50 BVC ff 00 00 e4 fb 109
43 c78f 4c JMP ff 00 00 e4 fb 111
44 c796 ea NOP ff 00 00 e4 fb 114
45 c797 a9 LDA ff 00 00 e4 fb 116
46 c799 85 STA 00 00 00 66 fb 118
47 c79b 24 BIT 00 00 00 66 fb 121
48 c79d 50 BVC 00 00 00 26 fb 124
49 c7a3 ea NOP 00 00 00 26 fb 127
50 c7a4 24 BIT 00 00 00 26 fb 129
51 c7a6 70 BVS 00 00 00 26 fb 132
52 c7a8 4c JMP 00 00 00 26 fb 134
53 c7af ea NOP 00 00 00 26 fb 137
54 c7b0 a9 LDA 00 00 00 26 fb 139
55 c7b2 10 BPL 00 00 00 26 fb 141
56 c7b8 ea NOP 00 00 00 26 fb 144
57 c7b9 a9 LDA 00 00 00 26 fb 146
58 c7bb 10 BPL 80 00 00 a4 fb 148
59 c7bd 4c JMP 80 00 00 a4 fb 150
60 c7d9 ea NOP 80 00 00 a4 fb 153
61 c7da 60 RTS 80 00 00 a4 fb 155
62 c600 20 JSR 80 00 00 a4 fd 161
63 c7db ea NOP 80 00 00 a4 fb 167
64 c7dc a9 LDA 80 00 00 a4 fb 169
65 c7de 85 STA ff 00 00 a4 fb 171
66 c7e0 24 BIT ff 00 00 a4 fb 174
67 c7e2 a9 LDA ff 00 00 e4 fb 177
68 c7e4 38 SEC 00 00 00 66 fb 179
69 c7e5 78 SEI 00 00 00 67 fb 181
70 c7e6 f8 SED 00 00 00 67 fb 183
71 c7e7 08 PHP 00 00 00 6f fb 185
72 c7e8 68 PLA 00 00 00 6f fa 188
73 c7e9 29 AND 7f 00 00 6d fb 192
74 c7eb c9 CMP 6f 00 00 6d fb 194
75 c7ed f0 BEQ 6f 00 00 6f fb 196
76 c7f3 ea NOP 6f 00 00 6f fb 199
77 c7f4 a9 LDA 6f 00 00 6f fb 201
78 c7f6 85 STA 40 00 00 6d fb 203
79 c7f8 24 BIT 40 00 00 6d fb 206
80 c7fa d8 CLD 40 00 00 6d fb 209
81 c7fb a9 LDA 40 00 00 65 fb 211
82 c7fd 18 CLC 10 00 00 65 fb 213
83 c7fe 08 PHP 10 00 00 64 fb 215
84 c7ff 68 PLA 10 00 00 64 fa 218
85 c800 29 AND 74 00 00 64 fb 222
86 c802 c9 CMP 64 00 00 64 fb 224
87 c804 f0 BEQ 64 00 00 67 fb 226
88 c80a ea NOP 64 00 00 67 fb 229
89 c80b a9 LDA 64 00 00 67 fb 231
90 c80d 85 STA 80 00 00 e5 fb 233
91 c80f 24 BIT 80 00 00 e5 fb 236
92 c811 f8 SED 80 00 00 a5 fb 239
93 c812 a9 LDA 80 00 00 ad fb 241
94 c814 38 SEC 00 00 00 2f fb 243
95 c815 08 PHP 00 00 00 2f fb 245
96 c816 68 PLA 00 00 00 2f fa 248
97 c817 29 AND 3f 00 00 2d fb 252
98 c819 c9 CMP 2f 00 00 2d fb 254
99 c81b f0 BEQ 2f 00 00 2f fb 256
100 c821 ea NOP 2f 00 00 2f fb 259
101 c822 a9 LDA 2f 00 00 2f fb 261
102 c824 48 PHA ff 00 00 ad fb 263
103 c825 28 PLP ff 00 00 ad fa 266
104 c826 d0 BNE ff 00 00 ef fb 270
105 c828 10 BPL ff 00 00 ef fb 272
106 c82a 50 BVC ff 00 00 ef fb 274
107 c82c 90 BCC ff 00 00 ef fb 276
108 c82e 4c JMP ff 00 00 ef fb 278
109 c835 ea NOP ff 00 00 ef fb 281
110 c836 a9 LDA ff 00 00 ef fb 283
111 c838 48 PHA 04 00 00 6d fb 285
112 c839 28 PLP 04 00 00 6d fa 288
113 c83a f0 BEQ 04 00 00 24 fb 292
114 c83c 30 BMI 04 00 00 24 fb 294
115 c83e 70 BVS 04 00 00 24 fb 296
116 c840 b0 BCS 04 00 00 24 fb 298
117 c842 4c JMP 04 00 00 24 fb 300
118 c849 ea NOP 04 00 00 24 fb 303
119 c84a f8 SED 04 00 00 24 fb 305
120 c84b a9 LDA 04 00 00 2c fb 307
121 c84d 85 STA ff 00 00 ac fb 309
122 c84f 24 BIT ff 00 00 ac fb 312
123 c851 18 CLC ff 00 00 ec fb 315
124 c852 a9 LDA ff 00 00 ec fb 317
125 c854 48 PHA 00 00 00 6e fb 319
126 c855 a9 LDA 00 00 00 6e fa 322
127 c857 68 PLA ff 00 00 ec fa 324
128 c858 d0 BNE 00 00 00 6e fb 328
129 c85a 30 BMI 00 00 00 6e fb 330
130 c85c 50 BVC 00 00 00 6e fb 332
131 c85e b0 BCS 00 00 00 6e fb 334
132 c860 4c JMP 00 00 00 6e fb 336
133 c867 ea NOP 00 00 00 6e fb 339
134 c868 a9 LDA 00 00 00 6e fb 341
135 c86a 85 STA 00 00 00 6e fb 343
136 c86c 24 BIT 00 00 00 6e fb 346
137 c86e 38 SEC 00 00 00 2e fb 349
138 c86f a9 LDA 00 00 00 2f fb 351
139 c871 48 PHA ff 00 00 ad fb 353
140 c872 a9 LDA ff 00 00 ad fa 356
141 c874 68 PLA 00 00 00 2f fa 358
142 c875 f0 BEQ ff 00 00 ad fb 362
143 c877 10 BPL ff 00 00 ad fb 364
144 c879 70 BVS ff 00 00 ad fb 366
145 c87b 90 BCC ff 00 00 ad fb 368
146 c87d 4c JMP ff 00 00 ad fb 370
147 c884 60 RTS ff 00 00 ad fb 373
148 c603 20 JSR ff 00 00 ad fd 379
149 c885 ea NOP ff 00 00 ad fb 385
150 c886 18 CLC ff 00 00 ad fb 387
151 c887 a9 LDA ff 00 00 ac fb 389
152 c889 85 STA ff 00 00 ac fb 391
153 c88b 24 BIT ff 00 00 ac fb 394
154 c88d a9 LDA ff 00 00 ec fb 397
155 c88f 09 ORA 55 00 00 6c fb 399
156 c891 b0 BCS ff 00 00 ec fb 401
157 c893 10 BPL ff 00 00 ec fb 403
158 c895 c9 CMP ff 00 00 ec fb 405
159 c897 d0 BNE ff 00 00 6f fb 407
160 c899 50 BVC ff 00 00 6f fb 409
161 c89b 4c JMP ff 00 00 6f fb 411
162 c8a2 ea NOP ff 00 00 6f fb 414
163 c8a3 38 SEC ff 00 00 6f fb 416
164 c8a4 b8 CLV ff 00 00 6f fb 418
165 c8a5 a9 LDA ff 00 00 2f fb 420
166 c8a7 09 ORA 00 00 00 2f fb 422
167 c8a9 d0 BNE 00 00 00 2f fb 424
168 c8ab 70 BVS 00 00 00 2f fb 426
169 c8ad 90 BCC 00 00 00 2f fb 428
170 c8af 30 BMI 00 00 00 2f fb 430
171 c8b1 4c JMP 00 00 00 2f fb 432
172 c8b8 ea NOP 00 00 00 2f fb 435
173 c8b9 18 CLC 00 00 00 2f fb 437
174 c8ba 24 BIT 00 00 00 2e fb 439
175 c8bc a9 LDA 00 00 00 ee fb 442
176 c8be 29 AND 55 00 00 6c fb 444
177 c8c0 d0 BNE 00 00 00 6e fb 446
178 c8c2 50 BVC 00 00 00 6e fb 448
179 c8c4 b0 BCS 00 00 00 6e fb 450
180 c8c6 30 BMI 00 00 00 6e fb 452
181 c8c8 4c JMP 00 00 00 6e fb 454
182 c8cf ea NOP 00 00 00 6e fb 457
183 c8d0 38 SEC 00 00 00 6e fb 459
184 c8d1 b8 CLV 00 00 00 6f fb 461
185 c8d2 a9 LDA 00 00 00 2f fb 463
186 c8d4 29 AND f8 00 00 ad fb 465
187 c8d6 90 BCC e8 00 00 ad fb 467
188 c8d8 10 BPL e8 00 00 ad fb 469
189 c8da c9 CMP e8 00 00 ad fb 471
190 c8dc d0 BNE e8 00 00 2f fb 473
191 c8de 70 BVS e8 00 00 2f fb 475
192 c8e0 4c JMP e8 00 00 2f fb 477
193 c8e7 ea NOP e8 00 00 2f fb 480
194 c8e8 18 CLC e8 00 00 2f fb 482
195 c8e9 24 BIT e8 00 00 2e fb 484
196 c8eb a9 LDA e8 00 00 ec fb 487
197 c8ed 49 EOR 5f 00 00 6c fb 489
198 c8ef b0 BCS f5 00 00 ec fb 491
199 c8f1 10 BPL f5 00 00 ec fb 493
200 c8f3 c9 CMP f5 00 00 ec fb 495
201 c8f5 d0 BNE f5 00 00 6f fb 497
202 c8f7 50 BVC f5 00 00 6f fb 499
203 c8f9 4c JMP f5 00 00 6f fb 501
204 c900 ea NOP f5 00 00 6f fb 504
205 c901 38 SEC f5 00 00 6f fb 506
206 c902 b8 CLV f5 00 00 6f fb 508
207 c903 a9 LDA f5 00 00 2f fb 510
208 c905 49 EOR 70 00 00 2d fb 512
209 c907 d0 BNE 00 00 00 2f fb 514
210 c909 70 BVS 00 00 00 2f fb 516
211 c90b 90 BCC 00 00 00 2f fb 518
212 c90d 30 BMI 00 00 00 2f fb 520
213 c90f 4c JMP 00 00 00 2f fb 522
214 c916 ea NOP 00 00 00 2f fb 525
215 c917 18 CLC 00 00 00 2f fb 527
216 c918 24 BIT 00 00 00 2e fb 529
217 c91a a9 LDA 00 00 00 ee fb 532
218 c91c 69 ADC 00 00 00 6e fb 534
219 c91e 30 BMI 69 00 00 2c fb 536
220 c920 b0 BCS 69 00 00 2c fb 538
221 c922 c9 CMP 69 00 00 2c fb 540
222 c924 d0 BNE 69 00 00 2f fb 542
223 c926 70 BVS 69 00 00 2f fb 544
224 c928 4c JMP 69 00 00 2f fb 546
225 c92f ea NOP 69 00 00 2f fb 549
226 c930 38 SEC 69 00 00 2f fb 551
227 c931 f8 SED 69 00 00 2f fb 553
228 c932 24 BIT 69 00 00 2f fb 555
229 c934 a9 LDA 69 00 00 ed fb 558
230 c936 69 ADC 01 00 00 6d fb 560
231 c938 30 BMI 6b 00 00 2c fb 562
232 c93a b0 BCS 6b 00 00 2c fb 564
233 c93c c9 CMP 6b 00 00 2c fb 566
234 c93e d0 BNE 6b 00 00 2f fb 568
235 c940 70 BVS 6b 00 00 2f fb 570
236 c942 4c JMP 6b 00 00 2f fb 572
237 c949 ea NOP 6b 00 00 2f fb 575
238 c94a d8 CLD 6b 00 00 2f fb 577
239 c94b 38 SEC 6b 00 00 27 fb 579
240 c94c b8 CLV 6b 00 00 27 fb 581
241 c94d a9 LDA 6b 00 00 27 fb 583
242 c94f 69 ADC 7f 00 00 25 fb 585
243 c951 10 BPL ff 00 00 e4 fb 587
244 c953 b0 BCS ff 00 00 e4 fb 589
245 c955 c9 CMP ff 00 00 e4 fb 591
246 c957 d0 BNE ff 00 00 67 fb 593
247 c959 50 BVC ff 00 00 67 fb 595
248 c95b 4c JMP ff 00 00 67 fb 597
249 c962 ea NOP ff 00 00 67 fb 600
250 c963 18 CLC ff 00 00 67 fb 602
251 c964 24 BIT ff 00 00 66 fb 604
252 c966 a9 LDA ff 00 00 e4 fb 607
253 c968 69 ADC 7f 00 00 64 fb 609
254 c96a 10 BPL ff 00 00 a4 fb 611
255 c96c b0 BCS ff 00 00 a4 fb 613
256 c96e c9 CMP ff 00 00 a4 fb 615
257 c970 d0 BNE ff 00 00 27 fb 617
258 c972 70 BVS ff 00 00 27 fb 619
259 c974 4c JMP ff 00 00 27 fb 621
260 c97b ea NOP ff 00 00 27 fb 624
261 c97c 38 SEC ff 00 00 27 fb 626
262 c97d b8 CLV ff 00 00 27 fb 628
263 c97e a9 LDA ff 00 00 27 fb 630
264 c980 69 ADC 7f 00 00 25 fb 632
265 c982 d0 BNE 00 00 00 27 fb 634
266 c984 30 BMI 00 00 00 27 fb 636
267 c986 70 BVS 00 00 00 27 fb 638
268 c988 90 BCC 00 00 00 27 fb 640
269 c98a 4c JMP 00 00 00 27 fb 642
270 c991 ea NOP 00 00 00 27 fb 645
271 c992 38 SEC 00 00 00 27 fb 647
272 c993 b8 CLV 00 00 00 27 fb 649
273 c994 a9 LDA 00 00 00 27 fb 651
274 c996 f0 BEQ 9f 00 00 a5 fb 653
275 c998 10 BPL 9f 00 00 a5 fb 655
276 c99a 70 BVS 9f 00 00 a5 fb 657
277 c99c 90 BCC 9f 00 00 a5 fb 659
278 c99e 4c JMP 9f 00 00 a5 fb 661
279 c9a5 ea NOP 9f 00 00 a5 fb 664
280 c9a6 18 CLC 9f 00 00 a5 fb 666
281 c9a7 24 BIT 9f 00 00 a4 fb 668
282 c9a9 a9 LDA 9f 00 00 e4 fb 671
283 c9ab d0 BNE 00 00 00 66 fb 673
284 c9ad 30 BMI 00 00 00 66 fb 675
285 c9af 50 BVC 00 00 00 66 fb 677
286 c9b1 b0 BCS 00 00 00 66 fb 679
287 c9b3 4c JMP 00 00 00 66 fb 681
288 c9ba ea NOP 00 00 00 66 fb 684
289 c9bb 24 BIT 00 00 00 66 fb 686
290 c9bd a9 LDA 00 00 00 e6 fb 689
291 c9bf c9 CMP 40 00 00 64 fb 691
292 c9c1 30 BMI 40 00 00 67 fb 693
293 c9c3 90 BCC 40 00 00 67 fb 695
294 c9c5 d0 BNE 40 00 00 67 fb 697
295 c9c7 50 BVC 40 00 00 67 fb 699
296 c9c9 4c JMP 40 00 00 67 fb 701
297 c9d0 ea NOP 40 00 00 67 fb 704
298 c9d1 b8 CLV 40 00 00 67 fb 706
299 c9d2 c9 CMP 40 00 00 27 fb 708
300 c9d4 f0 BEQ 40 00 00 25 fb 710
301 c9d6 30 BMI 40 00 00 25 fb 712
302 c9d8 90 BCC 40 00 00 25 fb 714
303 c9da 70 BVS 40 00 00 25 fb 716
304 c9dc 4c JMP 40 00 00 25 fb 718
305 c9e3 ea NOP 40 00 00 25 fb 721
306 c9e4 c9 CMP 40 00 00 25 fb 723
307 c9e6 f0 BEQ 40 00 00 a4 fb 725
308 c9e8 10 BPL 40 00 00 a4 fb 727
309 c9ea 10 BPL 40 00 00 a4 fb 729
310 c9ec 4c JMP 40 00 00 a4 fb 731
311 c9f3 ea NOP 40 00 00 a4 fb 734
312 c9f4 a9 LDA 40 00 00 a4 fb 736
313 c9f6 c9 CMP 80 00 00 a4 fb 738
314 c9f8 f0 BEQ 80 00 00 a5 fb 740
315 c9fa 10 BPL 80 00 00 a5 fb 742
316 c9fc 90 BCC 80 00 00 a5 fb 744
317 c9fe 4c JMP 80 00 00 a5 fb 746
318 ca05 ea NOP 80 00 00 a5 fb 749
319 ca06 c9 CMP 80 00 00 a5 fb 751
320 ca08 d0 BNE 80 00 00 27 fb 753
321 ca0a 30 BMI 80 00 00 27 fb 755
322 ca0c 90 BCC 80 00 00 27 fb 757
323 ca0e 4c JMP 80 00 00 27 fb 759
324 ca15 ea NOP 80 00 00 27 fb 762
325 ca16 c9 CMP 80 00 00 27 fb 764
326 ca18 b0 BCS 80 00 00 a4 fb 766
327 ca1a f0 BEQ 80 00 00 a4 fb 768
328 ca1c 10 BPL 80 00 00 a4 fb 770
329 ca1e 4c JMP 80 00 00 a4 fb 772
330 ca25 ea NOP 80 00 00 a4 fb 775
331 ca26 c9 CMP 80 00 00 a4 fb 777
332 ca28 90 BCC 80 00 00 25 fb 779
333 ca2a f0 BEQ 80 00 00 25 fb 781
334 ca2c 30 BMI 80 00 00 25 fb 783
335 ca2e 4c JMP 80 00 00 25 fb 785
336 ca35 ea NOP 80 00 00 25 fb 788
337 ca36 24 BIT 80 00 00 25 fb 790
338 ca38 a0 LDY 80 00 00 e5 fb 793
339 ca3a c0 CPY 80 00 40 65 fb 795
340 ca3c d0 BNE 80 00 40 67 fb 797
341 ca3e 30 BMI 80 00 40 67 fb 799
342 ca40 90 BCC 80 00 40 67 fb 801
343 ca42 50 BVC 80 00 40 67 fb 803
344 ca44 4c JMP 80 00 40 67 fb 805
345 ca4b ea NOP 80 00 40 67 fb 808
346 ca4c b8 CLV 80 00 40 67 fb 810
347 ca4d c0 CPY 80 00 40 27 fb 812
348 ca4f f0 BEQ 80 00 40 25 fb 814
349 ca51 30 BMI 80 00 40 25 fb 816
350 ca53 90 BCC 80 00 40 25 fb 818
351 ca55 70 BVS 80 00 40 25 fb 820
352 ca57 4c JMP 80 00 40 25 fb 822
353 ca5e ea NOP 80 00 40 25 fb 825
354 ca5f c0 CPY 80 00 40 25 fb 827
355 ca61 f0 BEQ 80 00 40 a4 fb 829
356 ca63 10 BPL 80 00 40 a4 fb 831
357 ca65 10 BPL 80 00 40 a4 fb 833
358 ca67 4c JMP 80 00 40 a4 fb 835
359 ca6e ea NOP 80 00 40 a4 fb 838
360 ca6f a0 LDY 80 00 40 a4 fb 840
361 ca71 c0 CPY 80 00 80 a4 fb 842
362 ca73 f0 BEQ 80 00 80 a5 fb 844
363 ca75 10 BPL 80 00 80 a5 fb 846
364 ca77 90 BCC 80 00 80 a5 fb 848
365 ca79 4c JMP 80 00 80 a5 fb 850
366 ca80 ea NOP 80 00 80 a5 fb 853
367 ca81 c0 CPY 80 00 80 a5 fb 855
368 ca83 d0 BNE 80 00 80 27 fb 857
369 ca85 30 BMI 80 00 80 27 fb 859
370 ca87 90 BCC 80 00 80 27 fb 861
371 ca89 4c JMP 80 00 80 27 fb 863
372 ca90 ea NOP 80 00 80 27 fb 866
373 ca91 c0 CPY 80 00 80 27 fb 868
374 ca93 b0 BCS 80 00 80 a4 fb 870
375 ca95 f0 BEQ 80 00 80 a4 fb 872
376 ca97 10 BPL 80 00 80 a4 fb 874
377 ca99 4c JMP 80 00 80 a4 fb 876
378 caa0 ea NOP 80 00 80 a4 fb 879
379 caa1 c0 CPY 80 00 80 a4 fb 881
380 caa3 90 BCC 80 00 80 25 fb 883
381 caa5 f0 BEQ 80 00 80 25 fb 885
382 caa7 30 BMI 80 00 80 25 fb 887
383 caa9 4c JMP 80 00 80 25 fb 889
384 cab0 ea NOP 80 00 80 25 fb 892
385 cab1 24 BIT 80 00 80 25 fb 894
386 cab3 a2 LDX 80 00 80 e5 fb 897
387 cab5 e0 CPX 80 40 80 65 fb 899
388 cab7 d0 BNE 80 40 80 67 fb 901
389 cab9 30 BMI 80 40 80 67 fb 903
390 cabb 90 BCC 80 40 80 67 fb 905
391 cabd 50 BVC 80 40 80 67 fb 907
392 cabf 4c JMP 80 40 80 67 fb 909
393 cac6 ea NOP 80 40 80 67 fb 912
394 cac7 b8 CLV 80 40 80 67 fb 914
395 cac8 e0 CPX 80 40 80 27 fb 916
396 caca f0 BEQ 80 40 80 25 fb 918
397 cacc 30 BMI 80 40 80 25 fb 920
398 cace 90 BCC 80 40 80 25 fb 922
399 cad0 70 BVS 80 40 80 25 fb 924
400 cad2 4c JMP 80 40 80 25 fb 926
401 cad9 ea NOP 80 40 80 25 fb 929
402 cada e0 CPX 80 40 80 25 fb 931
403 cadc f0 BEQ 80 40 80 a4 fb 933
404 cade 10 BPL 80 40 80 a4 fb 935
405 cae0 10 BPL 80 40 80 a4 fb 937
406 cae2 4c JMP 80 40 80 a4 fb 939
407 cae9 ea NOP 80 40 80 a4 fb 942
408 caea a2 LDX 80 40 80 a4 fb 944
409 caec e0 CPX 80 80 80 a4 fb 946
410 caee f0 BEQ 80 80 80 a5 fb 948
411 caf0 10 BPL 80 80 80 a5 fb 950
412 caf2 90 BCC 80 80 80 a5 fb 952
413 caf4 4c JMP 80 80 80 a5 fb 954
414 cafb ea NOP 80 80 80 a5 fb 957
415 cafc e0 CPX 80 80 80 a5 fb 959
416 cafe d0 BNE 80 80 80 27 fb 961
417 cb00 30 BMI 80 80 80 27 fb 963
418 cb02 90 BCC 80 80 80 27 fb 965
419 cb04 4c JMP 80 80 80 27 fb 967
420 cb0b ea NOP 80 80 80 27 fb 970
421 cb0c e0 CPX 80 80 80 27 fb 972
422 cb0e b0 BCS 80 80 80 a4 fb 974
423 cb10 f0 BEQ 80 80 80 a4 fb 976
424 cb12 10 BPL 80 80 80 a4 fb 978
425 cb14 4c JMP 80 80 80 a4 fb 980
426 cb1b ea NOP 80 80 80 a4 fb 983
427 cb1c e0 CPX 80 80 80 a4 fb 985
428 cb1e 90 BCC 80 80 80 25 fb 987
429 cb20 f0 BEQ 80 80 80 25 fb 989
430 cb22 30 BMI 80 80 80 25 fb 991
431 cb24 4c JMP 80 80 80 25 fb 993
432 cb2b ea NOP 80 80 80 25 fb 996
433 cb2c 38 SEC 80 80 80 25 fb 998
434 cb2d b8 CLV 80 80 80 25 fb 1000
435 cb2e a2 LDX 80 80 80 25 fb 1002
436 cb30 f0 BEQ 80 9f 80 a5 fb 1004
437 cb32 10 BPL 80 9f 80 a5 fb 1006
438 cb34 70 BVS 80 9f 80 a5 fb 1008
439 cb36 90 BCC 80 9f 80 a5 fb 1010
440 cb38 4c JMP 80 9f 80 a5 fb 1012
441 cb3f ea NOP 80 9f 80 a5 fb 1015
442 cb40 18 CLC 80 9f 80 a5 fb 1017
443 cb41 24 BIT 80 9f 80 a4 fb 1019
444 cb43 a2 LDX 80 9f 80 e4 fb 1022
445 cb45 d0 BNE 80 00 80 66 fb 1024
446 cb47 30 BMI 80 00 80 66 fb 1026
447 cb49 50 BVC 80 00 80 66 fb 1028
448 cb4b b0 BCS 80 00 80 66 fb 1030
449 cb4d 4c JMP 80 00 80 66 fb 1032
450 cb54 ea NOP 80 00 80 66 fb 1035
451 cb55 38 SEC 80 00 80 66 fb 1037
452 cb56 b8 CLV 80 00 80 67 fb 1039
453 cb57 a0 LDY 80 00 80 27 fb 1041
454 cb59 f0 BEQ 80 00 9f a5 fb 1043
455 cb5b 10 BPL 80 00 9f a5 fb 1045
456 cb5d 70 BVS 80 00 9f a5 fb 1047
457 cb5f 90 BCC 80 00 9f a5 fb 1049
458 cb61 4c JMP 80 00 9f a5 fb 1051
459 cb68 ea NOP 80 00 9f a5 fb 1054
460 cb69 18 CLC 80 00 9f a5 fb 1056
461 cb6a 24 BIT 80 00 9f a4 fb 1058
462 cb6c a0 LDY 80 00 9f e4 fb 1061
463 cb6e d0 BNE 80 00 00 66 fb 1063
464 cb70 30 BMI 80 00 00 66 fb 1065
465 cb72 50 BVC 80 00 00 66 fb 1067
466 cb74 b0 BCS 80 00 00 66 fb 1069
467 cb76 4c JMP 80 00 00 66 fb 1071
468 cb7d ea NOP 80 00 00 66 fb 1074
469 cb7e a9 LDA 80 00 00 66 fb 1076
470 cb80 a2 LDX 55 00 00 64 fb 1078
471 cb82 a0 LDY 55 aa 00 e4 fb 1080
472 cb84 c9 CMP 55 aa 33 64 fb 1082
473 cb86 d0 BNE 55 aa 33 67 fb 1084
474 cb88 e0 CPX 55 aa 33 67 fb 1086
475 cb8a d0 BNE 55 aa 33 67 fb 1088
476 cb8c c0 CPY 55 aa 33 67 fb 1090
477 cb8e d0 BNE 55 aa 33 67 fb 1092
478 cb90 c9 CMP 55 aa 33 67 fb 1094
479 cb92 d0 BNE 55 aa 33 67 fb 1096
480 cb94 e0 CPX 55 aa 33 67 fb 1098
481 cb96 d0 BNE 55 aa 33 67 fb 1100
482 cb98 c0 CPY 55 aa 33 67 fb 1102
483 cb9a d0 BNE 55 aa 33 67 fb 1104
484 cb9c c9 CMP 55 aa 33 67 fb 1106
485 cb9e f0 BEQ 55 aa 33 e4 fb 1108
486 cba0 e0 CPX 55 aa 33 e4 fb 1110
487 cba2 f0 BEQ 55 aa 33 e4 fb 1112
488 cba4 c0 CPY 55 aa 33 e4 fb 1114
489 cba6 f0 BEQ 55 aa 33 e4 fb 1116
490 cba8 4c JMP 55 aa 33 e4 fb 1118
491 cbaf a0 LDY 55 aa 33 e4 fb 1121
492 cbb1 20 JSR 55 aa 71 64 fb 1123
493 f931 24 BIT 55 aa 71 64 f9 1129
494 f933 a9 LDA 55 aa 71 e4 f9 1132
495 f935 38 SEC 40 aa 71 64 f9 1134
496 f936 60 RTS 40 aa 71 65 f9 1136
497 cbb4 e9 SBC 40 aa 71 65 fb 1142
498 cbb6 20 JSR 00 aa 71 27 fb 1144
499 f937 30 BMI 00 aa 71 27 f9 1150
500 f939 90 BCC 00 aa 71 27 f9 1152
501 f93b d0 BNE 00 aa 71 27 f9 1154
502 f93d 70 BVS 00 aa 71 27 f9 1156
503 f93f c9 CMP 00 aa 71 27 f9 1158
504 f941 d0 BNE 00 aa 71 27 f9 1160
505 f943 60 RTS 00 aa 71 27 f9 1162
506 cbb9 c8 INY 00 aa 71 27 fb 1168
507 cbba 20 JSR 00 aa 72 25 fb 1170
508 f947 b8 CLV 00 aa 72 25 f9 1176
509 f948 38 SEC 00 aa 72 25 f9 1178
510 f949 a9 LDA 00 aa 72 25 f9 1180
511 f94b 60 RTS 40 aa 72 25 f9 1182
512 cbbd e9 SBC 40 aa 72 25 fb 1188
513 cbbf 20 JSR 01 aa 72 25 fb 1190
514 f94c f0 BEQ 01 aa 72 25 f9 1196
515 f94e 30 BMI 01 aa 72 25 f9 1198
516 f950 90 BCC 01 aa 72 25 f9 1200
517 f952 70 BVS 01 aa 72 25 f9 1202
518 f954 c9 CMP 01 aa 72 25 f9 1204
519 f956 d0 BNE 01 aa 72 27 f9 1206
520 f958 60 RTS 01 aa 72 27 f9 1208
521 cbc2 c8 INY 01 aa 72 27 fb 1214
522 cbc3 20 JSR 01 aa 73 25 fb 1216
523 f95c a9 LDA 01 aa 73 25 f9 1222
524 f95e 38 SEC 40 aa 73 25 f9 1224
525 f95f 24 BIT 40 aa 73 25 f9 1226
526 f961 60 RTS 40 aa 73 e5 f9 1229
527 cbc6 e9 SBC 40 aa 73 e5 fb 1235
528 cbc8 20 JSR ff aa 73 a4 fb 1237
529 f962 b0 BCS ff aa 73 a4 f9 1243
530 f964 f0 BEQ ff aa 73 a4 f9 1245
531 f966 10 BPL ff aa 73 a4 f9 1247
532 f968 70 BVS ff aa 73 a4 f9 1249
533 f96a c9 CMP ff aa 73 a4 f9 1251
534 f96c d0 BNE ff aa 73 27 f9 1253
535 f96e 60 RTS ff aa 73 27 f9 1255
536 cbcb c8 INY ff aa 73 27 fb 1261
537 cbcc 20 JSR ff aa 74 25 fb 1263
538 f972 18 CLC ff aa 74 25 f9 1269
539 f973 a9 LDA ff aa 74 24 f9 1271
540 f975 60 RTS 80 aa 74 a4 f9 1273
541 cbcf e9 SBC 80 aa 74 a4 fb 1279
542 cbd1 20 JSR 7f aa 74 65 fb 1281
543 f976 90 BCC 7f aa 74 65 f9 1287
544 f978 c9 CMP 7f aa 74 65 f9 1289
545 f97a d0 BNE 7f aa 74 67 f9 1291
546 f97c 60 RTS 7f aa 74 67 f9 1293
547 cbd4 c8 INY 7f aa 74 67 fb 1299
548 cbd5 20 JSR 7f aa 75 65 fb 1301
549 f980 38 SEC 7f aa 75 65 f9 1307
550 f981 a9 LDA 7f aa 75 65 f9 1309
551 f983 60 RTS 81 aa 75 e5 f9 1311
552 cbd8 e9 SBC 81 aa 75 e5 fb 1317
553 cbda 20 JSR 02 aa 75 65 fb 1319
554 f984 50 BVC 02 aa 75 65 f9 1325
555 f986 90 BCC 02 aa 75 65 f9 1327
556 f988 c9 CMP 02 aa 75 65 f9 1329
557 f98a d0 BNE 02 aa 75 67 f9 1331
558 f98c 60 RTS 02 aa 75 67 f9 1333
559 cbdd 60 RTS 02 aa 75 67 fb 1339
560 c606 20 JSR 02 aa 75 67 fd 1345
561 cbde ea NOP 02 aa 75 67 fb 1351
562 cbdf a9 LDA 02 aa 75 67 fb 1353
563 cbe1 85 STA ff aa 75 e5 fb 1355
564 cbe3 a9 LDA ff aa 75 e5 fb 1358
565 cbe5 a2 LDX 44 aa 75 65 fb 1360
566 cbe7 a0 LDY 44 55 75 65 fb 1362
567 cbe9 e8 INX 44 55 66 65 fb 1364
568 cbea 88 DEY 44 56 66 65 fb 1366
569 cbeb e0 CPX 44 56 65 65 fb 1368
570 cbed d0 BNE 44 56 65 67 fb 1370
571 cbef c0 CPY 44 56 65 67 fb 1372
572 cbf1 d0 BNE 44 56 65 67 fb 1374
573 cbf3 e8 INX 44 56 65 67 fb 1376
574 cbf4 e8 INX 44 57 65 65 fb 1378
575 cbf5 88 DEY 44 58 65 65 fb 1380
576 cbf6 88 DEY 44 58 64 65 fb 1382
577 cbf7 e0 CPX 44 58 63 65 fb 1384
578 cbf9 d0 BNE 44 58 63 67 fb 1386
579 cbfb c0 CPY 44 58 63 67 fb 1388
580 cbfd d0 BNE 44 58 63 67 fb 1390
581 cbff ca DEX 44 58 63 67 fb 1392
582 cc00 c8 INY 44 57 63 65 fb 1394
583 cc01 e0 CPX 44 57 64 65 fb 1396
584 cc03 d0 BNE 44 57 64 67 fb 1398
585 cc05 c0 CPY 44 57 64 67 fb 1400
586 cc07 d0 BNE 44 57 64 67 fb 1402
587 cc09 c9 CMP 44 57 64 67 fb 1404
588 cc0b d0 BNE 44 57 64 67 fb 1406
589 cc0d 4c JMP 44 57 64 67 fb 1408
590 cc14 ea NOP 44 57 64 67 fb 1411
591 cc15 38 SEC 44 57 64 67 fb 1413
592 cc16 a2 LDX 44 57 64 67 fb 1415
593 cc18 a9 LDA 44 69 64 65 fb 1417
594 cc1a 24 BIT 96 69 64 e5 fb 1419
595 cc1c a0 LDY 96 69 64 e5 fb 1422
596 cc1e c8 INY 96 69 ff e5 fb 1424
597 cc1f d0 BNE 96 69 00 67 fb 1426
598 cc21 30 BMI 96 69 00 67 fb 1428
599 cc23 90 BCC 96 69 00 67 fb 1430
600 cc25 50 BVC 96 69 00 67 fb 1432
601 cc27 c0 CPY 96 69 00 67 fb 1434
602 cc29 d0 BNE 96 69 00 67 fb 1436
603 cc2b c8 INY 96 69 00 67 fb 1438
604 cc2c f0 BEQ 96 69 01 65 fb 1440
605 cc2e 30 BMI 96 69 01 65 fb 1442
606 cc30 90 BCC 96 69 01 65 fb 1444
607 cc32 50 BVC 96 69 01 65 fb 1446
608 cc34 18 CLC 96 69 01 65 fb 1448
609 cc35 b8 CLV 96 69 01 64 fb 1450
610 cc36 a0 LDY 96 69 01 24 fb 1452
611 cc38 88 DEY 96 69 00 26 fb 1454
612 cc39 f0 BEQ 96 69 ff a4 fb 1456
613 cc3b 10 BPL 96 69 ff a4 fb 1458
614 cc3d b0 BCS 96 69 ff a4 fb 1460
615 cc3f 70 BVS 96 69 ff a4 fb 1462
616 cc41 c0 CPY 96 69 ff a4 fb 1464
617 cc43 d0 BNE 96 69 ff 27 fb 1466
618 cc45 18 CLC 96 69 ff 27 fb 1468
619 cc46 88 DEY 96 69 ff 26 fb 1470
620 cc47 f0 BEQ 96 69 fe a4 fb 1472
621 cc49 10 BPL 96 69 fe a4 fb 1474
622 cc4b b0 BCS 96 69 fe a4 fb 1476
623 cc4d 70 BVS 96 69 fe a4 fb 1478
624 cc4f c0 CPY 96 69 fe a4 fb 1480
625 cc51 d0 BNE 96 69 fe 27 fb 1482
626 cc53 c9 CMP 96 69 fe 27 fb 1484
627 cc55 d0 BNE 96 69 fe 27 fb 1486
628 cc57 e0 CPX 96 69 fe 27 fb 1488
629 cc59 d0 BNE 96 69 fe 27 fb 1490
630 cc5b 4c JMP 96 69 fe 27 fb 1492
631 cc62 ea NOP 96 69 fe 27 fb 1495
632 cc63 38 SEC 96 69 fe 27 fb 1497
633 cc64 a0 LDY 96 69 fe 27 fb 1499
634 cc66 a9 LDA 96 69 69 25 fb 1501
635 cc68 24 BIT 96 69 69 a5 fb 1503
636 cc6a a2 LDX 96 69 69 e5 fb 1506
637 cc6c e8 INX 96 ff 69 e5 fb 1508
638 cc6d d0 BNE 96 00 69 67 fb 1510
639 cc6f 30 BMI 96 00 69 67 fb 1512
640 cc71 90 BCC 96 00 69 67 fb 1514
641 cc73 50 BVC 96 00 69 67 fb 1516
642 cc75 e0 CPX 96 00 69 67 fb 1518
643 cc77 d0 BNE 96 00 69 67 fb 1520
644 cc79 e8 INX 96 00 69 67 fb 1522
645 cc7a f0 BEQ 96 01 69 65 fb 1524
646 cc7c 30 BMI 96 01 69 65 fb 1526
647 cc7e 90 BCC 96 01 69 65 fb 1528
648 cc80 50 BVC 96 01 69 65 fb 1530
649 cc82 18 CLC 96 01 69 65 fb 1532
650 cc83 b8 CLV 96 01 69 64 fb 1534
651 cc84 a2 LDX 96 01 69 24 fb 1536
652 cc86 ca DEX 96 00 69 26 fb 1538
653 cc87 f0 BEQ 96 ff 69 a4 fb 1540
654 cc89 10 BPL 96 ff 69 a4 fb 1542
655 cc8b b0 BCS 96 ff 69 a4 fb 1544
656 cc8d 70 BVS 96 ff 69 a4 fb 1546
657 cc8f e0 CPX 96 ff 69 a4 fb 1548
658 cc91 d0 BNE 96 ff 69 27 fb 1550
659 cc93 18 CLC 96 ff 69 27 fb 1552
660 cc94 ca DEX 96 ff 69 26 fb 1554
661 cc95 f0 BEQ 96 fe 69 a4 fb 1556
662 cc97 10 BPL 96 fe 69 a4 fb 1558
663 cc99 b0 BCS 96 fe 69 a4 fb 1560
664 cc9b 70 BVS 96 fe 69 a4 fb 1562
665 cc9d e0 CPX 96 fe 69 a4 fb 1564
666 cc9f d0 BNE 96 fe 69 27 fb 1566
667 cca1 c9 CMP 96 fe 69 27 fb 1568
668 cca3 d0 BNE 96 fe 69 27 fb 1570
669 cca5 c0 CPY 96 fe 69 27 fb 1572
670 cca7 d0 BNE 96 fe 69 27 fb 1574
671 cca9 4c JMP 96 fe 69 27 fb 1576
672 ccb0 ea NOP 96 fe 69 27 fb 1579
673 ccb1 a9 LDA 96 fe 69 27 fb 1581
674 ccb3 a2 LDX 85 fe 69 a5 fb 1583
675 ccb5 a0 LDY 85 34 69 25 fb 1585
676 ccb7 18 CLC 85 34 99 a5 fb 1587
677 ccb8 24 BIT 85 34 99 a4 fb 1589
678 ccba a8 TAY 85 34 99 e4 fb 1592
679 ccbb f0 BEQ 85 34 85 e4 fb 1594
680 ccbd b0 BCS 85 34 85 e4 fb 1596
681 ccbf 50 BVC 85 34 85 e4 fb 1598
682 ccc1 10 BPL 85 34 85 e4 fb 1600
683 ccc3 c9 CMP 85 34 85 e4 fb 1602
684 ccc5 d0 BNE 85 34 85 67 fb 1604
685 ccc7 e0 CPX 85 34 85 67 fb 1606
686 ccc9 d0 BNE 85 34 85 67 fb 1608
687 cccb c0 CPY 85 34 85 67 fb 1610
688 cccd d0 BNE 85 34 85 67 fb 1612
689 cccf a9 LDA 85 34 85 67 fb 1614
690 ccd1 38 SEC 00 34 85 67 fb 1616
691 ccd2 b8 CLV 00 34 85 67 fb 1618
692 ccd3 a8 TAY 00 34 85 27 fb 1620
693 ccd4 d0 BNE 00 34 00 27 fb 1622
694 ccd6 90 BCC 00 34 00 27 fb 1624
695 ccd8 70 BVS 00 34 00 27 fb 1626
696 ccda 30 BMI 00 34 00 27 fb 1628
697 ccdc c9 CMP 00 34 00 27 fb 1630
698 ccde d0 BNE 00 34 00 27 fb 1632
699 cce0 e0 CPX 00 34 00 27 fb 1634
700 cce2 d0 BNE 00 34 00 27 fb 1636
701 cce4 c0 CPY 00 34 00 27 fb 1638
702 cce6 d0 BNE 00 34 00 27 fb 1640
703 cce8 4c JMP 00 34 00 27 fb 1642
704 ccef ea NOP 00 34 00 27 fb 1645
705 ccf0 a9 LDA 00 34 00 27 fb 1647
706 ccf2 a2 LDX 85 34 00 a5 fb 1649
707 ccf4 a0 LDY 85 34 00 25 fb 1651
708 ccf6 18 CLC 85 34 99 a5 fb 1653
709 ccf7 24 BIT 85 34 99 a4 fb 1655
710 ccf9 aa TAX 85 34 99 e4 fb 1658
711 ccfa f0 BEQ 85 85 99 e4 fb 1660
712 ccfc b0 BCS 85 85 99 e4 fb 1662
713 ccfe 50 BVC 85 85 99 e4 fb 1664
714 cd00 10 BPL 85 85 99 e4 fb 1666
715 cd02 c9 CMP 85 85 99 e4 fb 1668
716 cd04 d0 BNE 85 85 99 67 fb 1670
717 cd06 e0 CPX 85 85 99 67 fb 1672
718 cd08 d0 BNE 85 85 99 67 fb 1674
719 cd0a c0 CPY 85 85 99 67 fb 1676
720 cd0c d0 BNE 85 85 99 67 fb 1678
721 cd0e a9 LDA 85 85 99 67 fb 1680
722 cd10 38 SEC 00 85 99 67 fb 1682
723 cd11 b8 CLV 00 85 99 67 fb 1684
724 cd12 aa TAX 00 85 99 27 fb 1686
725 cd13 d0 BNE 00 00 99 27 fb 1688
726 cd15 90 BCC 00 00 99 27 fb 1690
727 cd17 70 BVS 00 00 99 27 fb 1692
728 cd19 30 BMI 00 00 99 27 fb 1694
729 cd1b c9 CMP 00 00 99 27 fb 1696
730 cd1d d0 BNE 00 00 99 27 fb 1698
731 cd1f e0 CPX 00 00 99 27 fb 1700
732 cd21 d0 BNE 00 00 99 27 fb 1702
733 cd23 c0 CPY 00 00 99 27 fb 1704
734 cd25 d0 BNE 00 00 99 27 fb 1706
735 cd27 4c JMP 00 00 99 27 fb 1708
736 cd2e ea NOP 00 00 99 27 fb 1711
737 cd2f a9 LDA 00 00 99 27 fb 1713
738 cd31 a2 LDX 85 00 99 a5 fb 1715
739 cd33 a0 LDY 85 34 99 25 fb 1717
740 cd35 18 CLC 85 34 99 a5 fb 1719
741 cd36 24 BIT 85 34 99 a4 fb 1721
742 cd38 98 TYA 85 34 99 e4 fb 1724
743 cd39 f0 BEQ 99 34 99 e4 fb 1726
744 cd3b b0 BCS 99 34 99 e4 fb 1728
745 cd3d 50 BVC 99 34 99 e4 fb 1730
746 cd3f 10 BPL 99 34 99 e4 fb 1732
747 cd41 c9 CMP 99 34 99 e4 fb 1734
748 cd43 d0 BNE 99 34 99 67 fb 1736
749 cd45 e0 CPX 99 34 99 67 fb 1738
750 cd47 d0 BNE 99 34 99 67 fb 1740
751 cd49 c0 CPY 99 34 99 67 fb 1742
752 cd4b d0 BNE 99 34 99 67 fb 1744
753 cd4d a0 LDY 99 34 99 67 fb 1746
754 cd4f 38 SEC 99 34 00 67 fb 1748
755 cd50 b8 CLV 99 34 00 67 fb 1750
756 cd51 98 TYA 99 34 00 27 fb 1752
757 cd52 d0 BNE 00 34 00 27 fb 1754
758 cd54 90 BCC 00 34 00 27 fb 1756
759 cd56 70 BVS 00 34 00 27 fb 1758
760 cd58 30 BMI 00 34 00 27 fb 1760
761 cd5a c9 CMP 00 34 00 27 fb 1762
762 cd5c d0 BNE 00 34 00 27 fb 1764
763 cd5e e0 CPX 00 34 00 27 fb 1766
764 cd60 d0 BNE 00 34 00 27 fb 1768
765 cd62 c0 CPY 00 34 00 27 fb 1770
766 cd64 d0 BNE 00 34 00 27 fb 1772
767 cd66 4c JMP 00 34 00 27 fb 1774
768 cd6d ea NOP 00 34 00 27 fb 1777
769 cd6e a9 LDA 00 34 00 27 fb 1779
770 cd70 a2 LDX 85 34 00 a5 fb 1781
771 cd72 a0 LDY 85 34 00 25 fb 1783
772 cd74 18 CLC 85 34 99 a5 fb 1785
773 cd75 24 BIT 85 34 99 a4 fb 1787
774 cd77 8a TXA 85 34 99 e4 fb 1790
775 cd78 f0 BEQ 34 34 99 64 fb 1792
776 cd7a b0 BCS 34 34 99 64 fb 1794
777 cd7c 50 BVC 34 34 99 64 fb 1796
778 cd7e 30 BMI 34 34 99 64 fb 1798
779 cd80 c9 CMP 34 34 99 64 fb 1800
780 cd82 d0 BNE 34 34 99 67 fb 1802
781 cd84 e0 CPX 34 34 99 67 fb 1804
782 cd86 d0 BNE 34 34 99 67 fb 1806
783 cd88 c0 CPY 34 34 99 67 fb 1808
784 cd8a d0 BNE 34 34 99 67 fb 1810
785 cd8c a2 LDX 34 34 99 67 fb 1812
786 cd8e 38 SEC 34 00 99 67 fb 1814
787 cd8f b8 CLV 34 00 99 67 fb 1816
788 cd90 8a TXA 34 00 99 27 fb 1818
789 cd91 d0 BNE 00 00 99 27 fb 1820
790 cd93 90 BCC 00 00 99 27 fb 1822
791 cd95 70 BVS 00 00 99 27 fb 1824
792 cd97 30 BMI 00 00 99 27 fb 1826
793 cd99 c9 CMP 00 00 99 27 fb 1828
794 cd9b d0 BNE 00 00 99 27 fb 1830
795 cd9d e0 CPX 00 00 99 27 fb 1832
796 cd9f d0 BNE 00 00 99 27 fb 1834
797 cda1 c0 CPY 00 00 99 27 fb 1836
798 cda3 d0 BNE 00 00 99 27 fb 1838
799 cda5 4c JMP 00 00 99 27 fb 1840
800 cdac ea NOP 00 00 99 27 fb 1843
801 cdad ba TSX 00 00 99 27 fb 1845
802 cdae 8e STX 00 fb 99 a5 fb 1847
803 cdb1 a0 LDY 00 fb 99 a5 fb 1851
804 cdb3 a2 LDX 00 fb 33 25 fb 1853
805 cdb5 a9 LDA 00 69 33 25 fb 1855
806 cdb7 18 CLC 84 69 33 a5 fb 1857
807 cdb8 24 BIT 84 69 33 a4 fb 1859
808 cdba 9a TXS 84 69 33 e4 fb 1862
809 cdbb f0 BEQ 84 69 33 e4 69 1864
810 cdbd 10 BPL 84 69 33 e4 69 1866
811 cdbf b0 BCS 84 69 33 e4 69 1868
812 cdc1 50 BVC 84 69 33 e4 69 1870
813 cdc3 c9 CMP 84 69 33 e4 69 1872
814 cdc5 d0 BNE 84 69 33 67 69 1874
815 cdc7 e0 CPX 84 69 33 67 69 1876
816 cdc9 d0 BNE 84 69 33 67 69 1878
817 cdcb c0 CPY 84 69 33 67 69 1880
818 cdcd d0 BNE 84 69 33 67 69 1882
819 cdcf a0 LDY 84 69 33 67 69 1884
820 cdd1 a9 LDA 84 69 01 65 69 1886
821 cdd3 38 SEC 04 69 01 65 69 1888
822 cdd4 b8 CLV 04 69 01 65 69 1890
823 cdd5 a2 LDX 04 69 01 25 69 1892
824 cdd7 ba TSX 04 00 01 27 69 1894
825 cdd8 f0 BEQ 04 69 01 25 69 1896
826 cdda 30 BMI 04 69 01 25 69 1898
827 cddc 90 BCC 04 69 01 25 69 1900
828 cdde 70 BVS 04 69 01 25 69 1902
829 cde0 e0 CPX 04 69 01 25 69 1904
830 cde2 d0 BNE 04 69 01 27 69 1906
831 cde4 c9 CMP 04 69 01 27 69 1908
832 cde6 d0 BNE 04 69 01 27 69 1910
833 cde8 c0 CPY 04 69 01 27 69 1912
834 cdea d0 BNE 04 69 01 27 69 1914
835 cdec 4c JMP 04 69 01 27 69 1916
836 cdf3 ae LDX 04 69 01 27 69 1919
837 cdf6 9a TXS 04 fb 01 a5 69 1923
838 cdf7 60 RTS 04 fb 01 a5 fb 1925
839 c609 20 JSR 04 fb 01 a5 fd 1931
840 cdf8 a9 LDA 04 fb 01 a5 fb 1937
841 cdfa 85 STA ff fb 01 a5 fb 1939
842 cdfc ba TSX ff fb 01 a5 fb 1942
843 cdfd 8e STX ff fb 01 a5 fb 1944
844 ce00 ea NOP ff fb 01 a5 fb 1948
845 ce01 a2 LDX ff fb 01 a5 fb 1950
846 ce03 9a TXS ff 80 01 a5 fb 1952
847 ce04 a9 LDA ff 80 01 a5 80 1954
848 ce06 48 PHA 33 80 01 25 80 1956
849 ce07 a9 LDA 33 80 01 25 7f 1959
850 ce09 48 PHA 69 80 01 25 7f 1961
851 ce0a ba TSX 69 80 01 25 7e 1964
852 ce0b e0 CPX 69 7e 01 25 7e 1966
853 ce0d d0 BNE 69 7e 01 27 7e 1968
854 ce0f 68 PLA 69 7e 01 27 7e 1970
855 ce10 c9 CMP 69 7e 01 25 7f 1974
856 ce12 d0 BNE 69 7e 01 27 7f 1976
857 ce14 68 PLA 69 7e 01 27 7f 1978
858 ce15 c9 CMP 33 7e 01 25 80 1982
859 ce17 d0 BNE 33 7e 01 27 80 1984
860 ce19 ba TSX 33 7e 01 27 80 1986
861 ce1a e0 CPX 33 80 01 a5 80 1988
862 ce1c d0 BNE 33 80 01 27 80 1990
863 ce1e ad LDA 33 80 01 27 80 1992
864 ce21 c9 CMP 33 80 01 25 80 1996
865 ce23 d0 BNE 33 80 01 27 80 1998
866 ce25 ad LDA 33 80 01 27 80 2000
867 ce28 c9 CMP 69 80 01 25 80 2004
868 ce2a d0 BNE 69 80 01 27 80 2006
869 ce2c 4c JMP 69 80 01 27 80 2008
870 ce33 ea NOP 69 80 01 27 80 2011
871 ce34 a2 LDX 69 80 01 27 80 2013
872 ce36 9a TXS 69 80 01 a5 80 2015
873 ce37 20 JSR 69 80 01 a5 80 2017
874 ce3d ba TSX 69 80 01 a5 7e 2023
875 ce3e e0 CPX 69 7e 01 25 7e 2025
876 ce40 d0 BNE 69 7e 01 27 7e 2027
877 ce42 68 PLA 69 7e 01 27 7e 2029
878 ce43 68 PLA 39 7e 01 25 7f 2033
879 ce44 ba TSX ce 7e 01 a5 80 2037
880 ce45 e0 CPX ce 80 01 a5 80 2039
881 ce47 d0 BNE ce 80 01 27 80 2041
882 ce49 a9 LDA ce 80 01 27 80 2043
883 ce4b 20 JSR 00 80 01 27 80 2045
884 ce4e 68 PLA 00 80 01 27 7e 2051
885 ce4f c9 CMP 4d 80 01 25 7f 2055
886 ce51 d0 BNE 4d 80 01 27 7f 2057
887 ce53 68 PLA 4d 80 01 27 7f 2059
888 ce54 c9 CMP ce 80 01 a5 80 2063
889 ce56 d0 BNE ce 80 01 27 80 2065
890 ce58 4c JMP ce 80 01 27 80 2067
891 ce5f ea NOP ce 80 01 27 80 2070
892 ce60 a9 LDA ce 80 01 27 80 2072
893 ce62 48 PHA ce 80 01 a5 80 2074
894 ce63 a9 LDA ce 80 01 a5 7f 2077
895 ce65 48 PHA 66 80 01 25 7f 2079
896 ce66 60 RTS 66 80 01 25 7e 2082
897 ce67 a2 LDX 66 80 01 25 80 2088
898 ce69 a0 LDY 66 77 01 25 80 2090
899 ce6b 18 CLC 66 77 69 25 80 2092
900 ce6c 24 BIT 66 77 69 24 80 2094
901 ce6e a9 LDA 66 77 69 e4 80 2097
902 ce70 20 JSR 83 77 69 e4 80 2099
903 ce66 60 RTS 83 77 69 e4 7e 2105
904 ce73 f0 BEQ 83 77 69 e4 80 2111
905 ce75 10 BPL 83 77 69 e4 80 2113
906 ce77 b0 BCS 83 77 69 e4 80 2115
907 ce79 50 BVC 83 77 69 e4 80 2117
908 ce7b c9 CMP 83 77 69 e4 80 2119
909 ce7d d0 BNE 83 77 69 67 80 2121
910 ce7f c0 CPY 83 77 69 67 80 2123
911 ce81 d0 BNE 83 77 69 67 80 2125
912 ce83 e0 CPX 83 77 69 67 80 2127
913 ce85 d0 BNE 83 77 69 67 80 2129
914 ce87 38 SEC 83 77 69 67 80 2131
915 ce88 b8 CLV 83 77 69 67 80 2133
916 ce89 a9 LDA 83 77 69 27 80 2135
917 ce8b 20 JSR 00 77 69 27 80 2137
918 ce66 60 RTS 00 77 69 27 7e 2143
919 ce8e d0 BNE 00 77 69 27 80 2149
920 ce90 30 BMI 00 77 69 27 80 2151
921 ce92 90 BCC 00 77 69 27 80 2153
922 ce94 70 BVS 00 77 69 27 80 2155
923 ce96 4c JMP 00 77 69 27 80 2157
924 ce9d ea NOP 00 77 69 27 80 2160
925 ce9e a9 LDA 00 77 69 27 80 2162
926 cea0 48 PHA ce 77 69 a5 80 2164
927 cea1 a9 LDA ce 77 69 a5 7f 2167
928 cea3 48 PHA ae 77 69 a5 7f 2169
929 cea4 a9 LDA ae 77 69 a5 7e 2172
930 cea6 48 PHA 65 77 69 25 7e 2174
931 cea7 a9 LDA 65 77 69 25 7d 2177
932 cea9 a0 LDY 55 77 69 25 7d 2179
933 ceab a2 LDX 55 77 88 a5 7d 2181
934 cead 40 RTI 55 99 88 a5 7d 2183
935 ceae 30 BMI 55 99 88 65 80 2189
936 ceb0 50 BVC 55 99 88 65 80 2191
937 ceb2 f0 BEQ 55 99 88 65 80 2193
938 ceb4 90 BCC 55 99 88 65 80 2195
939 ceb6 c9 CMP 55 99 88 65 80 2197
940 ceb8 d0 BNE 55 99 88 67 80 2199
941 ceba c0 CPY 55 99 88 67 80 2201
942 cebc d0 BNE 55 99 88 67 80 2203
943 cebe e0 CPX 55 99 88 67 80 2205
944 cec0 d0 BNE 55 99 88 67 80 2207
945 cec2 a9 LDA 55 99 88 67 80 2209
946 cec4 48 PHA ce 99 88 e5 80 2211
947 cec5 a9 LDA ce 99 88 e5 7f 2214
948 cec7 48 PHA ce 99 88 e5 7f 2216
949 cec8 a9 LDA ce 99 88 e5 7e 2219
950 ceca 48 PHA 87 99 88 e5 7e 2221
951 cecb a9 LDA 87 99 88 e5 7d 2224
952 cecd 40 RTI 55 99 88 65 7d 2226
953 cece 10 BPL 55 99 88 a7 80 2232
954 ced0 70 BVS 55 99 88 a7 80 2234
955 ced2 d0 BNE 55 99 88 a7 80 2236
956 ced4 90 BCC 55 99 88 a7 80 2238
957 ced6 c9 CMP 55 99 88 a7 80 2240
958 ced8 d0 BNE 55 99 88 27 80 2242
959 ceda c0 CPY 55 99 88 27 80 2244
960 cedc d0 BNE 55 99 88 27 80 2246
961 cede e0 CPX 55 99 88 27 80 2248
962 cee0 d0 BNE 55 99 88 27 80 2250
963 cee2 4c JMP 55 99 88 27 80 2252
964 cee9 ae LDX 55 99 88 27 80 2255
965 ceec 9a TXS 55 fb 88 a5 80 2259
966 ceed 60 RTS 55 fb 88 a5 fb 2261
967 c60c 20 JSR 55 fb 88 a5 fd 2267
968 ceee a2 LDX 55 fb 88 a5 fb 2273
969 cef0 a0 LDY 55 55 88 25 fb 2275
970 cef2 a9 LDA 55 55 69 25 fb 2277
971 cef4 85 STA ff 55 69 a5 fb 2279
972 cef6 ea NOP ff 55 69 a5 fb 2282
973 cef7 24 BIT ff 55 69 a5 fb 2284
974 cef9 38 SEC ff 55 69 e5 fb 2287
975 cefa a9 LDA ff 55 69 e5 fb 2289
976 cefc 4a LSR 01 55 69 65 fb 2291
977 cefd 90 BCC 00 55 69 67 fb 2293
978 ceff d0 BNE 00 55 69 67 fb 2295
979 cf01 30 BMI 00 55 69 67 fb 2297
980 cf03 50 BVC 00 55 69 67 fb 2299
981 cf05 c9 CMP 00 55 69 67 fb 2301
982 cf07 d0 BNE 00 55 69 67 fb 2303
983 cf09 b8 CLV 00 55 69 67 fb 2305
984 cf0a a9 LDA 00 55 69 27 fb 2307
985 cf0c 4a LSR aa 55 69 a5 fb 2309
986 cf0d b0 BCS 55 55 69 24 fb 2311
987 cf0f f0 BEQ 55 55 69 24 fb 2313
988 cf11 30 BMI 55 55 69 24 fb 2315
989 cf13 70 BVS 55 55 69 24 fb 2317
990 cf15 c9 CMP 55 55 69 24 fb 2319
991 cf17 d0 BNE 55 55 69 27 fb 2321
992 cf19 4c JMP 55 55 69 27 fb 2323
993 cf20 ea NOP 55 55 69 27 fb 2326
994 cf21 24 BIT 55 55 69 27 fb 2328
995 cf23 38 SEC 55 55 69 e5 fb 2331
996 cf24 a9 LDA 55 55 69 e5 fb 2333
997 cf26 0a ASL 80 55 69 e5 fb 2335
998 cf27 90 BCC 00 55 69 67 fb 2337
999 cf29 d0 BNE 00 55 69 67 fb 2339
1000 cf2b 30 BMI 00 55 69 67 fb 2341
1001 cf2d 50 BVC 00 55 69 67 fb 2343
1002 cf2f c9 CMP 00 55 69 67 fb 2345
1003 cf31 d0 BNE 00 55 69 67 fb 2347
1004 cf33 b8 CLV 00 55 69 67 fb 2349
1005 cf34 38 SEC 00 55 69 27 fb 2351
1006 cf35 a9 LDA 00 55 69 27 fb 2353
1007 cf37 0a ASL 55 55 69 25 fb 2355
1008 cf38 b0 BCS aa 55 69 a4 fb 2357
1009 cf3a f0 BEQ aa 55 69 a4 fb 2359
1010 cf3c 10 BPL aa 55 69 a4 fb 2361
1011 cf3e 70 BVS aa 55 69 a4 fb 2363
1012 cf40 c9 CMP aa 55 69 a4 fb 2365
1013 cf42 d0 BNE aa 55 69 27 fb 2367
1014 cf44 4c JMP aa 55 69 27 fb 2369
1015 cf4b ea NOP aa 55 69 27 fb 2372
1016 cf4c 24 BIT aa 55 69 27 fb 2374
1017 cf4e 38 SEC aa 55 69 e5 fb 2377
1018 cf4f a9 LDA aa 55 69 e5 fb 2379
1019 cf51 6a ROR 01 55 69 65 fb 2381
1020 cf52 90 BCC 80 55 69 e5 fb 2383
1021 cf54 f0 BEQ 80 55 69 e5 fb 2385
1022 cf56 10 BPL 80 55 69 e5 fb 2387
1023 cf58 50 BVC 80 55 69 e5 fb 2389
1024 cf5a c9 CMP 80 55 69 e5 fb 2391
1025 cf5c d0 BNE 80 55 69 67 fb 2393
1026 cf5e b8 CLV 80 55 69 67 fb 2395
1027 cf5f 18 CLC 80 55 69 27 fb 2397
1028 cf60 a9 LDA 80 55 69 26 fb 2399
1029 cf62 6a ROR 55 55 69 24 fb 2401
1030 cf63 90 BCC 2a 55 69 25 fb 2403
1031 cf65 f0 BEQ 2a 55 69 25 fb 2405
1032 cf67 30 BMI 2a 55 69 25 fb 2407
1033 cf69 70 BVS 2a 55 69 25 fb 2409
1034 cf6b c9 CMP 2a 55 69 25 fb 2411
1035 cf6d d0 BNE 2a 55 69 27 fb 2413
1036 cf6f 4c JMP 2a 55 69 27 fb 2415
1037 cf76 ea NOP 2a 55 69 27 fb 2418
1038 cf77 24 BIT 2a 55 69 27 fb 2420
1039 cf79 38 SEC 2a 55 69 e5 fb 2423
1040 cf7a a9 LDA 2a 55 69 e5 fb 2425
1041 cf7c 2a ROL 80 55 69 e5 fb 2427
1042 cf7d 90 BCC 01 55 69 65 fb 2429
1043 cf7f f0 BEQ 01 55 69 65 fb 2431
1044 cf81 30 BMI 01 55 69 65 fb 2433
1045 cf83 50 BVC 01 55 69 65 fb 2435
1046 cf85 c9 CMP 01 55 69 65 fb 2437
1047 cf87 d0 BNE 01 55 69 67 fb 2439
1048 cf89 b8 CLV 01 55 69 67 fb 2441
1049 cf8a 18 CLC 01 55 69 27 fb 2443
1050 cf8b a9 LDA 01 55 69 26 fb 2445
1051 cf8d 2a ROL 55 55 69 24 fb 2447
1052 cf8e b0 BCS aa 55 69 a4 fb 2449
1053 cf90 f0 BEQ aa 55 69 a4 fb 2451
1054 cf92 10 BPL aa 55 69 a4 fb 2453
1055 cf94 70 BVS aa 55 69 a4 fb 2455
1056 cf96 c9 CMP aa 55 69 a4 fb 2457
1057 cf98 d0 BNE aa 55 69 27 fb 2459
1058 cf9a 4c JMP aa 55 69 27 fb 2461
1059 cfa1 60 RTS aa 55 69 27 fb 2464
1060 c60f 20 JSR aa 55 69 27 fd 2470
1061 cfa2 a5 LDA aa 55 69 27 fb 2476
1062 cfa4 8d STA 00 55 69 27 fb 2479
1063 cfa7 a9 LDA 00 55 69 27 fb 2483
1064 cfa9 85 STA 00 55 69 27 fb 2485
1065 cfab a9 LDA 00 55 69 27 fb 2488
1066 cfad 85 STA 02 55 69 25 fb 2490
1067 cfaf a9 LDA 02 55 69 25 fb 2493
1068 cfb1 85 STA ff 55 69 a5 fb 2495
1069 cfb3 a9 LDA ff 55 69 a5 fb 2498
1070 cfb5 85 STA 00 55 69 27 fb 2500
1071 cfb7 a9 LDA 00 55 69 27 fb 2503
1072 cfb9 85 STA 03 55 69 25 fb 2505
1073 cfbb 85 STA 03 55 69 25 fb 2508
1074 cfbd a9 LDA 03 55 69 25 fb 2511
1075 cfbf 85 STA 00 55 69 27 fb 2513
1076 cfc1 a9 LDA 00 55 69 27 fb 2516
1077 cfc3 85 STA 04 55 69 25 fb 2518
1078 cfc5 a9 LDA 04 55 69 25 fb 2521
1079 cfc7 8d STA 5a 55 69 25 fb 2523
1080 cfca a9 LDA 5a 55 69 25 fb 2527
1081 cfcc 8d STA 5b 55 69 25 fb 2529
1082 cfcf a9 LDA 5b 55 69 25 fb 2533
1083 cfd1 8d STA 5c 55 69 25 fb 2535
1084 cfd4 a9 LDA 5c 55 69 25 fb 2539
1085 cfd6 8d STA 5d 55 69 25 fb 2541
1086 cfd9 a2 LDX 5d 55 69 25 fb 2545
1087 cfdb a1 LDA 5d 00 69 27 fb 2547
1088 cfdd c9 CMP 5a 00 69 25 fb 2553
1089 cfdf d0 BNE 5a 00 69 27 fb 2555
1090 cfe1 e8 INX 5a 00 69 27 fb 2557
1091 cfe2 e8 INX 5a 01 69 25 fb 2559
1092 cfe3 a1 LDA 5a 02 69 25 fb 2561
1093 cfe5 c9 CMP 5b 02 69 25 fb 2567
1094 cfe7 d0 BNE 5b 02 69 27 fb 2569
1095 cfe9 e8 INX 5b 02 69 27 fb 2571
1096 cfea a1 LDA 5b 03 69 25 fb 2573
1097 cfec c9 CMP 5c 03 69 25 fb 2579
1098 cfee d0 BNE 5c 03 69 27 fb 2581
1099 cff0 a2 LDX 5c 03 69 27 fb 2583
1100 cff2 a1 LDA 5c 00 69 27 fb 2585
1101 cff4 c9 CMP 5d 00 69 25 fb 2591
1102 cff6 d0 BNE 5d 00 69 27 fb 2593
1103 cff8 a2 LDX 5d 00 69 27 fb 2595
1104 cffa a1 LDA 5d 81 69 a5 fb 2597
1105 cffc c9 CMP 5a 81 69 25 fb 2603
1106 cffe f0 BEQ 5a 81 69 27 fb 2605
1107 d005 a9 LDA 5a 81 69 27 fb 2608
1108 d007 a2 LDX aa 81 69 a5 fb 2610
1109 d009 81 STA aa 00 69 27 fb 2612
1110 d00b e8 INX aa 00 69 27 fb 2618
1111 d00c e8 INX aa 01 69 25 fb 2620
1112 d00d a9 LDA aa 02 69 25 fb 2622
1113 d00f 81 STA ab 02 69 a5 fb 2624
1114 d011 e8 INX ab 02 69 a5 fb 2630
1115 d012 a9 LDA ab 03 69 25 fb 2632
1116 d014 81 STA ac 03 69 a5 fb 2634
1117 d016 a2 LDX ac 03 69 a5 fb 2640
1118 d018 a9 LDA ac 00 69 27 fb 2642
1119 d01a 81 STA ad 00 69 a5 fb 2644
1120 d01c ad LDA ad 00 69 a5 fb 2650
1121 d01f c9 CMP aa 00 69 a5 fb 2654
1122 d021 d0 BNE aa 00 69 27 fb 2656
1123 d023 ad LDA aa 00 69 27 fb 2658
1124 d026 c9 CMP ab 00 69 a5 fb 2662
1125 d028 d0 BNE ab 00 69 27 fb 2664
1126 d02a ad LDA ab 00 69 27 fb 2666
1127 d02d c9 CMP ac 00 69 a5 fb 2670
1128 d02f d0 BNE ac 00 69 27 fb 2672
1129 d031 ad LDA ac 00 69 27 fb 2674
1130 d034 c9 CMP ad 00 69 a5 fb 2678
1131 d036 f0 BEQ ad 00 69 27 fb 2680
1132 d03d ad LDA ad 00 69 27 fb 2683
1133 d040 85 STA 00 00 69 27 fb 2687
1134 d042 a9 LDA 00 00 69 27 fb 2690
1135 d044 8d STA 00 00 69 27 fb 2692
1136 d047 a9 LDA 00 00 69 27 fb 2696
1137 d049 8d STA aa 00 69 a5 fb 2698
1138 d04c a2 LDX aa 00 69 a5 fb 2702
1139 d04e a0 LDY aa 00 69 27 fb 2704
1140 d050 20 JSR aa 00 5a 25 fb 2706
1141 f7b6 18 CLC aa 00 5a 25 f9 2712
1142 f7b7 a9 LDA aa 00 5a 24 f9 2714
1143 f7b9 85 STA ff 00 5a a4 f9 2716
1144 f7bb 24 BIT ff 00 5a a4 f9 2719
1145 f7bd a9 LDA ff 00 5a e4 f9 2722
1146 f7bf 60 RTS 55 00 5a 64 f9 2724
1147 d053 01 ORA 55 00 5a 64 fb 2730
1148 d055 20 JSR ff 00 5a e4 fb 2736
1149 f7c0 b0 BCS ff 00 5a e4 f9 2742
1150 f7c2 10 BPL ff 00 5a e4 f9 2744
1151 f7c4 c9 CMP ff 00 5a e4 f9 2746
1152 f7c6 d0 BNE ff 00 5a 67 f9 2748
1153 f7c8 50 BVC ff 00 5a 67 f9 2750
1154 f7ca 60 RTS ff 00 5a 67 f9 2752
1155 d058 c8 INY ff 00 5a 67 fb 2758
1156 d059 20 JSR ff 00 5b 65 fb 2760
1157 f7ce 38 SEC ff 00 5b 65 f9 2766
1158 f7cf b8 CLV ff 00 5b 65 f9 2768
1159 f7d0 a9 LDA ff 00 5b 25 f9 2770
1160 f7d2 60 RTS 00 00 5b 27 f9 2772
1161 d05c 01 ORA 00 00 5b 27 fb 2778
1162 d05e 20 JSR 00 00 5b 27 fb 2784
1163 f7d3 d0 BNE 00 00 5b 27 f9 2790
1164 f7d5 70 BVS 00 00 5b 27 f9 2792
1165 f7d7 90 BCC 00 00 5b 27 f9 2794
1166 f7d9 30 BMI 00 00 5b 27 f9 2796
1167 f7db 60 RTS 00 00 5b 27 f9 2798
1168 d061 c8 INY 00 00 5b 27 fb 2804
1169 d062 20 JSR 00 00 5c 25 fb 2806
1170 f7df 18 CLC 00 00 5c 25 f9 2812
1171 f7e0 24 BIT 00 00 5c 24 f9 2814
1172 f7e2 a9 LDA 00 00 5c e6 f9 2817
1173 f7e4 60 RTS 55 00 5c 64 f9 2819
1174 d065 21 AND 55 00 5c 64 fb 2825
1175 d067 20 JSR 00 00 5c 66 fb 2831
1176 f7e5 d0 BNE 00 00 5c 66 f9 2837
1177 f7e7 50 BVC 00 00 5c 66 f9 2839
1178 f7e9 b0 BCS 00 00 5c 66 f9 2841
1179 f7eb 30 BMI 00 00 5c 66 f9 2843
1180 f7ed 60 RTS 00 00 5c 66 f9 2845
1181 d06a c8 INY 00 00 5c 66 fb 2851
1182 d06b a9 LDA 00 00 5d 64 fb 2853
1183 d06d 8d STA ef 00 5d e4 fb 2855
1184 d070 20 JSR ef 00 5d e4 fb 2859
1185 f7f1 38 SEC ef 00 5d e4 f9 2865
1186 f7f2 b8 CLV ef 00 5d e5 f9 2867
1187 f7f3 a9 LDA ef 00 5d a5 f9 2869
1188 f7f5 60 RTS f8 00 5d a5 f9 2871
1189 d073 21 AND f8 00 5d a5 fb 2877
1190 d075 20 JSR e8 00 5d a5 fb 2883
1191 f7f6 90 BCC e8 00 5d a5 f9 2889
1192 f7f8 10 BPL e8 00 5d a5 f9 2891
1193 f7fa c9 CMP e8 00 5d a5 f9 2893
1194 f7fc d0 BNE e8 00 5d 27 f9 2895
1195 f7fe 70 BVS e8 00 5d 27 f9 2897
1196 f800 60 RTS e8 00 5d 27 f9 2899
1197 d078 c8 INY e8 00 5d 27 fb 2905
1198 d079 20 JSR e8 00 5e 25 fb 2907
1199 f804 18 CLC e8 00 5e 25 f9 2913
1200 f805 24 BIT e8 00 5e 24 f9 2915
1201 f807 a9 LDA e8 00 5e e4 f9 2918
1202 f809 60 RTS 5f 00 5e 64 f9 2920
1203 d07c 41 EOR 5f 00 5e 64 fb 2926
1204 d07e 20 JSR f5 00 5e e4 fb 2932
1205 f80a b0 BCS f5 00 5e e4 f9 2938
1206 f80c 10 BPL f5 00 5e e4 f9 2940
1207 f80e c9 CMP f5 00 5e e4 f9 2942
1208 f810 d0 BNE f5 00 5e 67 f9 2944
1209 f812 50 BVC f5 00 5e 67 f9 2946
1210 f814 60 RTS f5 00 5e 67 f9 2948
1211 d081 c8 INY f5 00 5e 67 fb 2954
1212 d082 a9 LDA f5 00 5f 65 fb 2956
1213 d084 8d STA 70 00 5f 65 fb 2958
1214 d087 20 JSR 70 00 5f 65 fb 2962
1215 f818 38 SEC 70 00 5f 65 f9 2968
1216 f819 b8 CLV 70 00 5f 65 f9 2970
1217 f81a a9 LDA 70 00 5f 25 f9 2972
1218 f81c 60 RTS 70 00 5f 25 f9 2974
1219 d08a 41 EOR 70 00 5f 25 fb 2980
1220 d08c 20 JSR 00 00 5f 27 fb 2986
1221 f81d d0 BNE 00 00 5f 27 f9 2992
1222 f81f 70 BVS 00 00 5f 27 f9 2994
1223 f821 90 BCC 00 00 5f 27 f9 2996
1224 f823 30 BMI 00 00 5f 27 f9 2998
1225 f825 60 RTS 00 00 5f 27 f9 3000
1226 d08f c8 INY 00 00 5f 27 fb 3006
1227 d090 a9 LDA 00 00 60 25 fb 3008
1228 d092 8d STA 69 00 60 25 fb 3010
1229 d095 20 JSR 69 00 60 25 fb 3014
1230 f829 18 CLC 69 00 60 25 f9 3020
1231 f82a 24 BIT 69 00 60 24 f9 3022
1232 f82c a9 LDA 69 00 60 e4 f9 3025
1233 f82e 60 RTS 00 00 60 66 f9 3027
1234 d098 61 ADC 00 00 60 66 fb 3033
1235 d09a 20 JSR 69 00 60 24 fb 3039
1236 f82f 30 BMI 69 00 60 24 f9 3045
1237 f831 b0 BCS 69 00 60 24 f9 3047
1238 f833 c9 CMP 69 00 60 24 f9 3049
1239 f835 d0 BNE 69 00 60 27 f9 3051
1240 f837 70 BVS 69 00 60 27 f9 3053
1241 f839 60 RTS 69 00 60 27 f9 3055
1242 d09d c8 INY 69 00 60 27 fb 3061
1243 d09e 20 JSR 69 00 61 25 fb 3063
1244 f83d 38 SEC 69 00 61 25 f9 3069
1245 f83e 24 BIT 69 00 61 25 f9 3071
1246 f840 a9 LDA 69 00 61 e5 f9 3074
1247 f842 60 RTS 00 00 61 67 f9 3076
1248 d0a1 61 ADC 00 00 61 67 fb 3082
1249 d0a3 20 JSR 6a 00 61 24 fb 3088
1250 f843 30 BMI 6a 00 61 24 f9 3094
1251 f845 b0 BCS 6a 00 61 24 f9 3096
1252 f847 c9 CMP 6a 00 61 24 f9 3098
1253 f849 d0 BNE 6a 00 61 27 f9 3100
1254 f84b 70 BVS 6a 00 61 27 f9 3102
1255 f84d 60 RTS 6a 00 61 27 f9 3104
1256 d0a6 c8 INY 6a 00 61 27 fb 3110
1257 d0a7 a9 LDA 6a 00 62 25 fb 3112
1258 d0a9 8d STA 7f 00 62 25 fb 3114
1259 d0ac 20 JSR 7f 00 62 25 fb 3118
1260 f851 38 SEC 7f 00 62 25 f9 3124
1261 f852 b8 CLV 7f 00 62 25 f9 3126
1262 f853 a9 LDA 7f 00 62 25 f9 3128
1263 f855 60 RTS 7f 00 62 25 f9 3130
1264 d0af 61 ADC 7f 00 62 25 fb 3136
1265 d0b1 20 JSR ff 00 62 e4 fb 3142
1266 f856 10 BPL ff 00 62 e4 f9 3148
1267 f858 b0 BCS ff 00 62 e4 f9 3150
1268 f85a c9 CMP ff 00 62 e4 f9 3152
1269 f85c d0 BNE ff 00 62 67 f9 3154
1270 f85e 50 BVC ff 00 62 67 f9 3156
1271 f860 60 RTS ff 00 62 67 f9 3158
1272 d0b4 c8 INY ff 00 62 67 fb 3164
1273 d0b5 a9 LDA ff 00 63 65 fb 3166
1274 d0b7 8d STA 80 00 63 e5 fb 3168
1275 d0ba 20 JSR 80 00 63 e5 fb 3172
1276 f864 18 CLC 80 00 63 e5 f9 3178
1277 f865 24 BIT 80 00 63 e4 f9 3180
1278 f867 a9 LDA 80 00 63 e4 f9 3183
1279 f869 60 RTS 7f 00 63 64 f9 3185
1280 d0bd 61 ADC 7f 00 63 64 fb 3191
1281 d0bf 20 JSR ff 00 63 a4 fb 3197
1282 f86a 10 BPL ff 00 63 a4 f9 3203
1283 f86c b0 BCS ff 00 63 a4 f9 3205
1284 f86e c9 CMP ff 00 63 a4 f9 3207
1285 f870 d0 BNE ff 00 63 27 f9 3209
1286 f872 70 BVS ff 00 63 27 f9 3211
1287 f874 60 RTS ff 00 63 27 f9 3213
1288 d0c2 c8 INY ff 00 63 27 fb 3219
1289 d0c3 20 JSR ff 00 64 25 fb 3221
1290 f878 38 SEC ff 00 64 25 f9 3227
1291 f879 b8 CLV ff 00 64 25 f9 3229
1292 f87a a9 LDA ff 00 64 25 f9 3231
1293 f87c 60 RTS 7f 00 64 25 f9 3233
1294 d0c6 61 ADC 7f 00 64 25 fb 3239
1295 d0c8 20 JSR 00 00 64 27 fb 3245
1296 f87d d0 BNE 00 00 64 27 f9 3251
1297 f87f 30 BMI 00 00 64 27 f9 3253
1298 f881 70 BVS 00 00 64 27 f9 3255
1299 f883 90 BCC 00 00 64 27 f9 3257
1300 f885 60 RTS 00 00 64 27 f9 3259
1301 d0cb c8 INY 00 00 64 27 fb 3265
1302 d0cc a9 LDA 00 00 65 25 fb 3267
1303 d0ce 8d STA 40 00 65 25 fb 3269
1304 d0d1 20 JSR 40 00 65 25 fb 3273
1305 f889 24 BIT 40 00 65 25 f9 3279
1306 f88b a9 LDA 40 00 65 e5 f9 3282
1307 f88d 60 RTS 40 00 65 65 f9 3284
1308 d0d4 c1 CMP 40 00 65 65 fb 3290
1309 d0d6 20 JSR 40 00 65 67 fb 3296
1310 f88e 30 BMI 40 00 65 67 f9 3302
1311 f890 90 BCC 40 00 65 67 f9 3304
1312 f892 d0 BNE 40 00 65 67 f9 3306
1313 f894 50 BVC 40 00 65 67 f9 3308
1314 f896 60 RTS 40 00 65 67 f9 3310
1315 d0d9 c8 INY 40 00 65 67 fb 3316
1316 d0da 48 PHA 40 00 66 65 fb 3318
1317 d0db a9 LDA 40 00 66 65 fa 3321
1318 d0dd 8d STA 3f 00 66 65 fa 3323
1319 d0e0 68 PLA 3f 00 66 65 fa 3327
1320 d0e1 20 JSR 40 00 66 65 fb 3331
1321 f89a b8 CLV 40 00 66 65 f9 3337
1322 f89b 60 RTS 40 00 66 25 f9 3339
1323 d0e4 c1 CMP 40 00 66 25 fb 3345
1324 d0e6 20 JSR 40 00 66 25 fb 3351
1325 f89c f0 BEQ 40 00 66 25 f9 3357
1326 f89e 30 BMI 40 00 66 25 f9 3359
1327 f8a0 90 BCC 40 00 66 25 f9 3361
1328 f8a2 70 BVS 40 00 66 25 f9 3363
1329 f8a4 60 RTS 40 00 66 25 f9 3365
1330 d0e9 c8 INY 40 00 66 25 fb 3371
1331 d0ea 48 PHA 40 00 67 25 fb 3373
1332 d0eb a9 LDA 40 00 67 25 fa 3376
1333 d0ed 8d STA 41 00 67 25 fa 3378
1334 d0f0 68 PLA 41 00 67 25 fa 3382
1335 d0f1 c1 CMP 40 00 67 25 fb 3386
1336 d0f3 20 JSR 40 00 67 a4 fb 3392
1337 f8a8 f0 BEQ 40 00 67 a4 f9 3398
1338 f8aa 10 BPL 40 00 67 a4 f9 3400
1339 f8ac 10 BPL 40 00 67 a4 f9 3402
1340 f8ae 60 RTS 40 00 67 a4 f9 3404
1341 d0f6 c8 INY 40 00 67 a4 fb 3410
1342 d0f7 48 PHA 40 00 68 24 fb 3412
1343 d0f8 a9 LDA 40 00 68 24 fa 3415
1344 d0fa 8d STA 00 00 68 26 fa 3417
1345 d0fd 68 PLA 00 00 68 26 fa 3421
1346 d0fe 20 JSR 40 00 68 24 fb 3425
1347 f8b2 a9 LDA 40 00 68 24 f9 3431
1348 f8b4 60 RTS 80 00 68 a4 f9 3433
1349 d101 c1 CMP 80 00 68 a4 fb 3439
1350 d103 20 JSR 80 00 68 a5 fb 3445
1351 f8b5 f0 BEQ 80 00 68 a5 f9 3451
1352 f8b7 10 BPL 80 00 68 a5 f9 3453
1353 f8b9 90 BCC 80 00 68 a5 f9 3455
1354 f8bb 60 RTS 80 00 68 a5 f9 3457
1355 d106 c8 INY 80 00 68 a5 fb 3463
1356 d107 48 PHA 80 00 69 25 fb 3465
1357 d108 a9 LDA 80 00 69 25 fa 3468
1358 d10a 8d STA 80 00 69 a5 fa 3470
1359 d10d 68 PLA 80 00 69 a5 fa 3474
1360 d10e c1 CMP 80 00 69 a5 fb 3478
1361 d110 20 JSR 80 00 69 27 fb 3484
1362 f8bf d0 BNE 80 00 69 27 f9 3490
1363 f8c1 30 BMI 80 00 69 27 f9 3492
1364 f8c3 90 BCC 80 00 69 27 f9 3494
1365 f8c5 60 RTS 80 00 69 27 f9 3496
1366 d113 c8 INY 80 00 69 27 fb 3502
1367 d114 48 PHA 80 00 6a 25 fb 3504
1368 d115 a9 LDA 80 00 6a 25 fa 3507
1369 d117 8d STA 81 00 6a a5 fa 3509
1370 d11a 68 PLA 81 00 6a a5 fa 3513
1371 d11b c1 CMP 80 00 6a a5 fb 3517
1372 d11d 20 JSR 80 00 6a a4 fb 3523
1373 f8c9 b0 BCS 80 00 6a a4 f9 3529
1374 f8cb f0 BEQ 80 00 6a a4 f9 3531
1375 f8cd 10 BPL 80 00 6a a4 f9 3533
1376 f8cf 60 RTS 80 00 6a a4 f9 3535
1377 d120 c8 INY 80 00 6a a4 fb 3541
1378 d121 48 PHA 80 00 6b 24 fb 3543
1379 d122 a9 LDA 80 00 6b 24 fa 3546
1380 d124 8d STA 7f 00 6b 24 fa 3548
1381 d127 68 PLA 7f 00 6b 24 fa 3552
1382 d128 c1 CMP 80 00 6b a4 fb 3556
1383 d12a 20 JSR 80 00 6b 25 fb 3562
1384 f8d3 90 BCC 80 00 6b 25 f9 3568
1385 f8d5 f0 BEQ 80 00 6b 25 f9 3570
1386 f8d7 30 BMI 80 00 6b 25 f9 3572
1387 f8d9 60 RTS 80 00 6b 25 f9 3574
1388 d12d c8 INY 80 00 6b 25 fb 3580
1389 d12e a9 LDA 80 00 6c 25 fb 3582
1390 d130 8d STA 40 00 6c 25 fb 3584
1391 d133 20 JSR 40 00 6c 25 fb 3588
1392 f931 24 BIT 40 00 6c 25 f9 3594
1393 f933 a9 LDA 40 00 6c e5 f9 3597
1394 f935 38 SEC 40 00 6c 65 f9 3599
1395 f936 60 RTS 40 00 6c 65 f9 3601
1396 d136 e1 SBC 40 00 6c 65 fb 3607
1397 d138 20 JSR 00 00 6c 27 fb 3613
1398 f937 30 BMI 00 00 6c 27 f9 3619
1399 f939 90 BCC 00 00 6c 27 f9 3621
1400 f93b d0 BNE 00 00 6c 27 f9 3623
1401 f93d 70 BVS 00 00 6c 27 f9 3625
1402 f93f c9 CMP 00 00 6c 27 f9 3627
1403 f941 d0 BNE 00 00 6c 27 f9 3629
1404 f943 60 RTS 00 00 6c 27 f9 3631
1405 d13b c8 INY 00 00 6c 27 fb 3637
1406 d13c a9 LDA 00 00 6d 25 fb 3639
1407 d13e 8d STA 3f 00 6d 25 fb 3641
1408 d141 20 JSR 3f 00 6d 25 fb 3645
1409 f947 b8 CLV 3f 00 6d 25 f9 3651
1410 f948 38 SEC 3f 00 6d 25 f9 3653
1411 f949 a9 LDA 3f 00 6d 25 f9 3655
1412 f94b 60 RTS 40 00 6d 25 f9 3657
1413 d144 e1 SBC 40 00 6d 25 fb 3663
1414 d146 20 JSR 01 00 6d 25 fb 3669
1415 f94c f0 BEQ 01 00 6d 25 f9 3675
1416 f94e 30 BMI 01 00 6d 25 f9 3677
1417 f950 90 BCC 01 00 6d 25 f9 3679
1418 f952 70 BVS 01 00 6d 25 f9 3681
1419 f954 c9 CMP 01 00 6d 25 f9 3683
1420 f956 d0 BNE 01 00 6d 27 f9 3685
1421 f958 60 RTS 01 00 6d 27 f9 3687
1422 d149 c8 INY 01 00 6d 27 fb 3693
1423 d14a a9 LDA 01 00 6e 25 fb 3695
1424 d14c 8d STA 41 00 6e 25 fb 3697
1425 d14f 20 JSR 41 00 6e 25 fb 3701
1426 f95c a9 LDA 41 00 6e 25 f9 3707
1427 f95e 38 SEC 40 00 6e 25 f9 3709
1428 f95f 24 BIT 40 00 6e 25 f9 3711
1429 f961 60 RTS 40 00 6e e5 f9 3714
1430 d152 e1 SBC 40 00 6e e5 fb 3720
1431 d154 20 JSR ff 00 6e a4 fb 3726
1432 f962 b0 BCS ff 00 6e a4 f9 3732
1433 f964 f0 BEQ ff 00 6e a4 f9 3734
1434 f966 10 BPL ff 00 6e a4 f9 3736
1435 f968 70 BVS ff 00 6e a4 f9 3738
1436 f96a c9 CMP ff 00 6e a4 f9 3740
1437 f96c d0 BNE ff 00 6e 27 f9 3742
1438 f96e 60 RTS ff 00 6e 27 f9 3744
1439 d157 c8 INY ff 00 6e 27 fb 3750
1440 d158 a9 LDA ff 00 6f 25 fb 3752
1441 d15a 8d STA 00 00 6f 27 fb 3754
1442 d15d 20 JSR 00 00 6f 27 fb 3758
1443 f972 18 CLC 00 00 6f 27 f9 3764
1444 f973 a9 LDA 00 00 6f 26 f9 3766
1445 f975 60 RTS 80 00 6f a4 f9 3768
1446 d160 e1 SBC 80 00 6f a4 fb 3774
1447 d162 20 JSR 7f 00 6f 65 fb 3780
1448 f976 90 BCC 7f 00 6f 65 f9 3786
1449 f978 c9 CMP 7f 00 6f 65 f9 3788
1450 f97a d0 BNE 7f 00 6f 67 f9 3790
1451 f97c 60 RTS 7f 00 6f 67 f9 3792
1452 d165 c8 INY 7f 00 6f 67 fb 3798
1453 d166 a9 LDA 7f 00 70 65 fb 3800
1454 d168 8d STA 7f 00 70 65 fb 3802
1455 d16b 20 JSR 7f 00 70 65 fb 3806
1456 f980 38 SEC 7f 00 70 65 f9 3812
1457 f981 a9 LDA 7f 00 70 65 f9 3814
1458 f983 60 RTS 81 00 70 e5 f9 3816
1459 d16e e1 SBC 81 00 70 e5 fb 3822
1460 d170 20 JSR 02 00 70 65 fb 3828
1461 f984 50 BVC 02 00 70 65 f9 3834
1462 f986 90 BCC 02 00 70 65 f9 3836
1463 f988 c9 CMP 02 00 70 65 f9 3838
1464 f98a d0 BNE 02 00 70 67 f9 3840
1465 f98c 60 RTS 02 00 70 67 f9 3842
1466 d173 60 RTS 02 00 70 67 fb 3848
1467 c612 20 JSR 02 00 70 67 fd 3854
1468 d174 a9 LDA 02 00 70 67 fb 3860
1469 d176 85 STA 55 00 70 65 fb 3862
1470 d178 a9 LDA 55 00 70 65 fb 3865
1471 d17a 85 STA ff 00 70 e5 fb 3867
1472 d17c 24 BIT ff 00 70 e5 fb 3870
1473 d17e a0 LDY ff 00 70 e5 fb 3873
1474 d180 a2 LDX ff 00 11 65 fb 3875
1475 d182 a9 LDA ff 23 11 65 fb 3877
1476 d184 a5 LDA 00 23 11 67 fb 3879
1477 d186 f0 BEQ 55 23 11 65 fb 3882
1478 d188 30 BMI 55 23 11 65 fb 3884
1479 d18a c9 CMP 55 23 11 65 fb 3886
1480 d18c d0 BNE 55 23 11 67 fb 3888
1481 d18e c0 CPY 55 23 11 67 fb 3890
1482 d190 d0 BNE 55 23 11 67 fb 3892
1483 d192 e0 CPX 55 23 11 67 fb 3894
1484 d194 50 BVC 55 23 11 67 fb 3896
1485 d196 f0 BEQ 55 23 11 67 fb 3898
1486 d19c a9 LDA 55 23 11 67 fb 3901
1487 d19e 24 BIT 46 23 11 65 fb 3903
1488 d1a0 85 STA 46 23 11 e5 fb 3906
1489 d1a2 f0 BEQ 46 23 11 e5 fb 3909
1490 d1a4 10 BPL 46 23 11 e5 fb 3911
1491 d1a6 50 BVC 46 23 11 e5 fb 3913
1492 d1a8 a5 LDA 46 23 11 e5 fb 3915
1493 d1aa c9 CMP 46 23 11 65 fb 3918
1494 d1ac f0 BEQ 46 23 11 67 fb 3920
1495 d1b2 a9 LDA 46 23 11 67 fb 3923
1496 d1b4 85 STA 55 23 11 65 fb 3925
1497 d1b6 24 BIT 55 23 11 65 fb 3928
1498 d1b8 a9 LDA 55 23 11 e5 fb 3931
1499 d1ba a2 LDX 11 23 11 65 fb 3933
1500 d1bc a0 LDY 11 23 11 65 fb 3935
1501 d1be a4 LDY 11 23 00 67 fb 3937
1502 d1c0 f0 BEQ 11 23 55 65 fb 3940
1503 d1c2 30 BMI 11 23 55 65 fb 3942
1504 d1c4 c0 CPY 11 23 55 65 fb 3944
1505 d1c6 d0 BNE 11 23 55 67 fb 3946
1506 d1c8 c9 CMP 11 23 55 67 fb 3948
1507 d1ca d0 BNE 11 23 55 67 fb 3950
1508 d1cc e0 CPX 11 23 55 67 fb 3952
1509 d1ce 50 BVC 11 23 55 67 fb 3954
1510 d1d0 f0 BEQ 11 23 55 67 fb 3956
1511 d1d6 a0 LDY 11 23 55 67 fb 3959
1512 d1d8 24 BIT 11 23 46 65 fb 3961
1513 d1da 84 STY 11 23 46 e5 fb 3964
1514 d1dc f0 BEQ 11 23 46 e5 fb 3967
1515 d1de 10 BPL 11 23 46 e5 fb 3969
1516 d1e0 50 BVC 11 23 46 e5 fb 3971
1517 d1e2 a4 LDY 11 23 46 e5 fb 3973
1518 d1e4 c0 CPY 11 23 46 65 fb 3976
1519 d1e6 f0 BEQ 11 23 46 67 fb 3978
1520 d1ec 24 BIT 11 23 46 67 fb 3981
1521 d1ee a9 LDA 11 23 46 e5 fb 3984
1522 d1f0 85 STA 55 23 46 65 fb 3986
1523 d1f2 a0 LDY 55 23 46 65 fb 3989
1524 d1f4 a9 LDA 55 23 11 65 fb 3991
1525 d1f6 a2 LDX 23 23 11 65 fb 3993
1526 d1f8 a6 LDX 23 00 11 67 fb 3995
1527 d1fa f0 BEQ 23 55 11 65 fb 3998
1528 d1fc 30 BMI 23 55 11 65 fb 4000
1529 d1fe e0 CPX 23 55 11 65 fb 4002
1530 d200 d0 BNE 23 55 11 67 fb 4004
1531 d202 c0 CPY 23 55 11 67 fb 4006
1532 d204 d0 BNE 23 55 11 67 fb 4008
1533 d206 c9 CMP 23 55 11 67 fb 4010
1534 d208 50 BVC 23 55 11 67 fb 4012
1535 d20a f0 BEQ 23 55 11 67 fb 4014
1536 d210 a2 LDX 23 55 11 67 fb 4017
1537 d212 24 BIT 23 46 11 65 fb 4019
1538 d214 86 STX 23 46 11 e5 fb 4022
1539 d216 f0 BEQ 23 46 11 e5 fb 4025
1540 d218 10 BPL 23 46 11 e5 fb 4027
1541 d21a 50 BVC 23 46 11 e5 fb 4029
1542 d21c a6 LDX 23 46 11 e5 fb 4031
1543 d21e e0 CPX 23 46 11 65 fb 4034
1544 d220 f0 BEQ 23 46 11 67 fb 4036
1545 d226 a9 LDA 23 46 11 67 fb 4039
1546 d228 85 STA c0 46 11 e5 fb 4041
1547 d22a a2 LDX c0 46 11 e5 fb 4044
1548 d22c a0 LDY c0 33 11 65 fb 4046
1549 d22e a9 LDA c0 33 88 e5 fb 4048
1550 d230 24 BIT 05 33 88 65 fb 4050
1551 d232 10 BPL 05 33 88 e7 fb 4053
1552 d234 50 BVC 05 33 88 e7 fb 4055
1553 d236 d0 BNE 05 33 88 e7 fb 4057
1554 d238 c9 CMP 05 33 88 e7 fb 4059
1555 d23a d0 BNE 05 33 88 67 fb 4061
1556 d23c e0 CPX 05 33 88 67 fb 4063
1557 d23e d0 BNE 05 33 88 67 fb 4065
1558 d240 c0 CPY 05 33 88 67 fb 4067
1559 d242 f0 BEQ 05 33 88 67 fb 4069
1560 d248 a9 LDA 05 33 88 67 fb 4072
1561 d24a 85 STA 03 33 88 65 fb 4074
1562 d24c a9 LDA 03 33 88 65 fb 4077
1563 d24e 24 BIT 01 33 88 65 fb 4079
1564 d250 30 BMI 01 33 88 25 fb 4082
1565 d252 70 BVS 01 33 88 25 fb 4084
1566 d254 f0 BEQ 01 33 88 25 fb 4086
1567 d256 c9 CMP 01 33 88 25 fb 4088
1568 d258 f0 BEQ 01 33 88 27 fb 4090
1569 d25e a0 LDY 01 33 88 27 fb 4093
1570 d260 a9 LDA 01 33 7e 25 fb 4095
1571 d262 85 STA aa 33 7e a5 fb 4097
1572 d264 20 JSR aa 33 7e a5 fb 4100
1573 f7b6 18 CLC aa 33 7e a5 f9 4106
1574 f7b7 a9 LDA aa 33 7e a4 f9 4108
1575 f7b9 85 STA ff 33 7e a4 f9 4110
1576 f7bb 24 BIT ff 33 7e a4 f9 4113
1577 f7bd a9 LDA ff 33 7e e4 f9 4116
1578 f7bf 60 RTS 55 33 7e 64 f9 4118
1579 d267 05 ORA 55 33 7e 64 fb 4124
1580 d269 20 JSR ff 33 7e e4 fb 4127
1581 f7c0 b0 BCS ff 33 7e e4 f9 4133
1582 f7c2 10 BPL ff 33 7e e4 f9 4135
1583 f7c4 c9 CMP ff 33 7e e4 f9 4137
1584 f7c6 d0 BNE ff 33 7e 67 f9 4139
1585 f7c8 50 BVC ff 33 7e 67 f9 4141
1586 f7ca 60 RTS ff 33 7e 67 f9 4143
1587 d26c c8 INY ff 33 7e 67 fb 4149
1588 d26d a9 LDA ff 33 7f 65 fb 4151
1589 d26f 85 STA 00 33 7f 67 fb 4153
1590 d271 20 JSR 00 33 7f 67 fb 4156
1591 f7ce 38 SEC 00 33 7f 67 f9 4162
1592 f7cf b8 CLV 00 33 7f 67 f9 4164
1593 f7d0 a9 LDA 00 33 7f 27 f9 4166
1594 f7d2 60 RTS 00 33 7f 27 f9 4168
1595 d274 05 ORA 00 33 7f 27 fb 4174
1596 d276 20 JSR 00 33 7f 27 fb 4177
1597 f7d3 d0 BNE 00 33 7f 27 f9 4183
1598 f7d5 70 BVS 00 33 7f 27 f9 4185
1599 f7d7 90 BCC 00 33 7f 27 f9 4187
1600 f7d9 30 BMI 00 33 7f 27 f9 4189
1601 f7db 60 RTS 00 33 7f 27 f9 4191
1602 d279 c8 INY 00 33 7f 27 fb 4197
1603 d27a a9 LDA 00 33 80 a5 fb 4199
1604 d27c 85 STA aa 33 80 a5 fb 4201
1605 d27e 20 JSR aa 33 80 a5 fb 4204
1606 f7df 18 CLC aa 33 80 a5 f9 4210
1607 f7e0 24 BIT aa 33 80 a4 f9 4212
1608 f7e2 a9 LDA aa 33 80 e4 f9 4215
1609 f7e4 60 RTS 55 33 80 64 f9 4217
1610 d281 25 AND 55 33 80 64 fb 4223
1611 d283 20 JSR 00 33 80 66 fb 4226
1612 f7e5 d0 BNE 00 33 80 66 f9 4232
1613 f7e7 50 BVC 00 33 80 66 f9 4234
1614 f7e9 b0 BCS 00 33 80 66 f9 4236
1615 f7eb 30 BMI 00 33 80 66 f9 4238
1616 f7ed 60 RTS 00 33 80 66 f9 4240
1617 d286 c8 INY 00 33 80 66 fb 4246
1618 d287 a9 LDA 00 33 81 e4 fb 4248
1619 d289 85 STA ef 33 81 e4 fb 4250
1620 d28b 20 JSR ef 33 81 e4 fb 4253
1621 f7f1 38 SEC ef 33 81 e4 f9 4259
1622 f7f2 b8 CLV ef 33 81 e5 f9 4261
1623 f7f3 a9 LDA ef 33 81 a5 f9 4263
1624 f7f5 60 RTS f8 33 81 a5 f9 4265
1625 d28e 25 AND f8 33 81 a5 fb 4271
1626 d290 20 JSR e8 33 81 a5 fb 4274
1627 f7f6 90 BCC e8 33 81 a5 f9 4280
1628 f7f8 10 BPL e8 33 81 a5 f9 4282
1629 f7fa c9 CMP e8 33 81 a5 f9 4284
1630 f7fc d0 BNE e8 33 81 27 f9 4286
1631 f7fe 70 BVS e8 33 81 27 f9 4288
1632 f800 60 RTS e8 33 81 27 f9 4290
1633 d293 c8 INY e8 33 81 27 fb 4296
1634 d294 a9 LDA e8 33 82 a5 fb 4298
1635 d296 85 STA aa 33 82 a5 fb 4300
1636 d298 20 JSR aa 33 82 a5 fb 4303
1637 f804 18 CLC aa 33 82 a5 f9 4309
1638 f805 24 BIT aa 33 82 a4 f9 4311
1639 f807 a9 LDA aa 33 82 e4 f9 4314
1640 f809 60 RTS 5f 33 82 64 f9 4316
1641 d29b 45 EOR 5f 33 82 64 fb 4322
1642 d29d 20 JSR f5 33 82 e4 fb 4325
1643 f80a b0 BCS f5 33 82 e4 f9 4331
1644 f80c 10 BPL f5 33 82 e4 f9 4333
1645 f80e c9 CMP f5 33 82 e4 f9 4335
1646 f810 d0 BNE f5 33 82 67 f9 4337
1647 f812 50 BVC f5 33 82 67 f9 4339
1648 f814 60 RTS f5 33 82 67 f9 4341
1649 d2a0 c8 INY f5 33 82 67 fb 4347
1650 d2a1 a9 LDA f5 33 83 e5 fb 4349
1651 d2a3 85 STA 70 33 83 65 fb 4351
1652 d2a5 20 JSR 70 33 83 65 fb 4354
1653 f818 38 SEC 70 33 83 65 f9 4360
1654 f819 b8 CLV 70 33 83 65 f9 4362
1655 f81a a9 LDA 70 33 83 25 f9 4364
1656 f81c 60 RTS 70 33 83 25 f9 4366
1657 d2a8 45 EOR 70 33 83 25 fb 4372
1658 d2aa 20 JSR 00 33 83 27 fb 4375
1659 f81d d0 BNE 00 33 83 27 f9 4381
1660 f81f 70 BVS 00 33 83 27 f9 4383
1661 f821 90 BCC 00 33 83 27 f9 4385
1662 f823 30 BMI 00 33 83 27 f9 4387
1663 f825 60 RTS 00 33 83 27 f9 4389
1664 d2ad c8 INY 00 33 83 27 fb 4395
1665 d2ae a9 LDA 00 33 84 a5 fb 4397
1666 d2b0 85 STA 69 33 84 25 fb 4399
1667 d2b2 20 JSR 69 33 84 25 fb 4402
1668 f829 18 CLC 69 33 84 25 f9 4408
1669 f82a 24 BIT 69 33 84 24 f9 4410
1670 f82c a9 LDA 69 33 84 e4 f9 4413
1671 f82e 60 RTS 00 33 84 66 f9 4415
1672 d2b5 65 ADC 00 33 84 66 fb 4421
1673 d2b7 20 JSR 69 33 84 24 fb 4424
1674 f82f 30 BMI 69 33 84 24 f9 4430
1675 f831 b0 BCS 69 33 84 24 f9 4432
1676 f833 c9 CMP 69 33 84 24 f9 4434
1677 f835 d0 BNE 69 33 84 27 f9 4436
1678 f837 70 BVS 69 33 84 27 f9 4438
1679 f839 60 RTS 69 33 84 27 f9 4440
1680 d2ba c8 INY 69 33 84 27 fb 4446
1681 d2bb 20 JSR 69 33 85 a5 fb 4448
1682 f83d 38 SEC 69 33 85 a5 f9 4454
1683 f83e 24 BIT 69 33 85 a5 f9 4456
1684 f840 a9 LDA 69 33 85 e5 f9 4459
1685 f842 60 RTS 00 33 85 67 f9 4461
1686 d2be 65 ADC 00 33 85 67 fb 4467
1687 d2c0 20 JSR 6a 33 85 24 fb 4470
1688 f843 30 BMI 6a 33 85 24 f9 4476
1689 f845 b0 BCS 6a 33 85 24 f9 4478
1690 f847 c9 CMP 6a 33 85 24 f9 4480
1691 f849 d0 BNE 6a 33 85 27 f9 4482
1692 f84b 70 BVS 6a 33 85 27 f9 4484
1693 f84d 60 RTS 6a 33 85 27 f9 4486
1694 d2c3 c8 INY 6a 33 85 27 fb 4492
1695 d2c4 a9 LDA 6a 33 86 a5 fb 4494
1696 d2c6 85 STA 7f 33 86 25 fb 4496
1697 d2c8 20 JSR 7f 33 86 25 fb 4499
1698 f851 38 SEC 7f 33 86 25 f9 4505
1699 f852 b8 CLV 7f 33 86 25 f9 4507
1700 f853 a9 LDA 7f 33 86 25 f9 4509
1701 f855 60 RTS 7f 33 86 25 f9 4511
1702 d2cb 65 ADC 7f 33 86 25 fb 4517
1703 d2cd 20 JSR ff 33 86 e4 fb 4520
1704 f856 10 BPL ff 33 86 e4 f9 4526
1705 f858 b0 BCS ff 33 86 e4 f9 4528
1706 f85a c9 CMP ff 33 86 e4 f9 4530
1707 f85c d0 BNE ff 33 86 67 f9 4532
1708 f85e 50 BVC ff 33 86 67 f9 4534
1709 f860 60 RTS ff 33 86 67 f9 4536
1710 d2d0 c8 INY ff 33 86 67 fb 4542
1711 d2d1 a9 LDA ff 33 87 e5 fb 4544
1712 d2d3 85 STA 80 33 87 e5 fb 4546
1713 d2d5 20 JSR 80 33 87 e5 fb 4549
1714 f864 18 CLC 80 33 87 e5 f9 4555
1715 f865 24 BIT 80 33 87 e4 f9 4557
1716 f867 a9 LDA 80 33 87 e4 f9 4560
1717 f869 60 RTS 7f 33 87 64 f9 4562
1718 d2d8 65 ADC 7f 33 87 64 fb 4568
1719 d2da 20 JSR ff 33 87 a4 fb 4571
1720 f86a 10 BPL ff 33 87 a4 f9 4577
1721 f86c b0 BCS ff 33 87 a4 f9 4579
1722 f86e c9 CMP ff 33 87 a4 f9 4581
1723 f870 d0 BNE ff 33 87 27 f9 4583
1724 f872 70 BVS ff 33 87 27 f9 4585
1725 f874 60 RTS ff 33 87 27 f9 4587
1726 d2dd c8 INY ff 33 87 27 fb 4593
1727 d2de 20 JSR ff 33 88 a5 fb 4595
1728 f878 38 SEC ff 33 88 a5 f9 4601
1729 f879 b8 CLV ff 33 88 a5 f9 4603
1730 f87a a9 LDA ff 33 88 a5 f9 4605
1731 f87c 60 RTS 7f 33 88 25 f9 4607
1732 d2e1 65 ADC 7f 33 88 25 fb 4613
1733 d2e3 20 JSR 00 33 88 27 fb 4616
1734 f87d d0 BNE 00 33 88 27 f9 4622
1735 f87f 30 BMI 00 33 88 27 f9 4624
1736 f881 70 BVS 00 33 88 27 f9 4626
1737 f883 90 BCC 00 33 88 27 f9 4628
1738 f885 60 RTS 00 33 88 27 f9 4630
1739 d2e6 c8 INY 00 33 88 27 fb 4636
1740 d2e7 a9 LDA 00 33 89 a5 fb 4638
1741 d2e9 85 STA 40 33 89 25 fb 4640
1742 d2eb 20 JSR 40 33 89 25 fb 4643
1743 f889 24 BIT 40 33 89 25 f9 4649
1744 f88b a9 LDA 40 33 89 e5 f9 4652
1745 f88d 60 RTS 40 33 89 65 f9 4654
1746 d2ee c5 CMP 40 33 89 65 fb 4660
1747 d2f0 20 JSR 40 33 89 67 fb 4663
1748 f88e 30 BMI 40 33 89 67 f9 4669
1749 f890 90 BCC 40 33 89 67 f9 4671
1750 f892 d0 BNE 40 33 89 67 f9 4673
1751 f894 50 BVC 40 33 89 67 f9 4675
1752 f896 60 RTS 40 33 89 67 f9 4677
1753 d2f3 c8 INY 40 33 89 67 fb 4683
1754 d2f4 48 PHA 40 33 8a e5 fb 4685
1755 d2f5 a9 LDA 40 33 8a e5 fa 4688
1756 d2f7 85 STA 3f 33 8a 65 fa 4690
1757 d2f9 68 PLA 3f 33 8a 65 fa 4693
1758 d2fa 20 JSR 40 33 8a 65 fb 4697
1759 f89a b8 CLV 40 33 8a 65 f9 4703
1760 f89b 60 RTS 40 33 8a 25 f9 4705
1761 d2fd c5 CMP 40 33 8a 25 fb 4711
1762 d2ff 20 JSR 40 33 8a 25 fb 4714
1763 f89c f0 BEQ 40 33 8a 25 f9 4720
1764 f89e 30 BMI 40 33 8a 25 f9 4722
1765 f8a0 90 BCC 40 33 8a 25 f9 4724
1766 f8a2 70 BVS 40 33 8a 25 f9 4726
1767 f8a4 60 RTS 40 33 8a 25 f9 4728
1768 d302 c8 INY 40 33 8a 25 fb 4734
1769 d303 48 PHA 40 33 8b a5 fb 4736
1770 d304 a9 LDA 40 33 8b a5 fa 4739
1771 d306 85 STA 41 33 8b 25 fa 4741
1772 d308 68 PLA 41 33 8b 25 fa 4744
1773 d309 c5 CMP 40 33 8b 25 fb 4748
1774 d30b 20 JSR 40 33 8b a4 fb 4751
1775 f8a8 f0 BEQ 40 33 8b a4 f9 4757
1776 f8aa 10 BPL 40 33 8b a4 f9 4759
1777 f8ac 10 BPL 40 33 8b a4 f9 4761
1778 f8ae 60 RTS 40 33 8b a4 f9 4763
1779 d30e c8 INY 40 33 8b a4 fb 4769
1780 d30f 48 PHA 40 33 8c a4 fb 4771
1781 d310 a9 LDA 40 33 8c a4 fa 4774
1782 d312 85 STA 00 33 8c 26 fa 4776
1783 d314 68 PLA 00 33 8c 26 fa 4779
1784 d315 20 JSR 40 33 8c 24 fb 4783
1785 f8b2 a9 LDA 40 33 8c 24 f9 4789
1786 f8b4 60 RTS 80 33 8c a4 f9 4791
1787 d318 c5 CMP 80 33 8c a4 fb 4797
1788 d31a 20 JSR 80 33 8c a5 fb 4800
1789 f8b5 f0 BEQ 80 33 8c a5 f9 4806
1790 f8b7 10 BPL 80 33 8c a5 f9 4808
1791 f8b9 90 BCC 80 33 8c a5 f9 4810
1792 f8bb 60 RTS 80 33 8c a5 f9 4812
1793 d31d c8 INY 80 33 8c a5 fb 4818
1794 d31e 48 PHA 80 33 8d a5 fb 4820
1795 d31f a9 LDA 80 33 8d a5 fa 4823
1796 d321 85 STA 80 33 8d a5 fa 4825
1797 d323 68 PLA 80 33 8d a5 fa 4828
1798 d324 c5 CMP 80 33 8d a5 fb 4832
1799 d326 20 JSR 80 33 8d 27 fb 4835
1800 f8bf d0 BNE 80 33 8d 27 f9 4841
1801 f8c1 30 BMI 80 33 8d 27 f9 4843
1802 f8c3 90 BCC 80 33 8d 27 f9 4845
1803 f8c5 60 RTS 80 33 8d 27 f9 4847
1804 d329 c8 INY 80 33 8d 27 fb 4853
1805 d32a 48 PHA 80 33 8e a5 fb 4855
1806 d32b a9 LDA 80 33 8e a5 fa 4858
1807 d32d 85 STA 81 33 8e a5 fa 4860
1808 d32f 68 PLA 81 33 8e a5 fa 4863
1809 d330 c5 CMP 80 33 8e a5 fb 4867
1810 d332 20 JSR 80 33 8e a4 fb 4870
1811 f8c9 b0 BCS 80 33 8e a4 f9 4876
1812 f8cb f0 BEQ 80 33 8e a4 f9 4878
1813 f8cd 10 BPL 80 33 8e a4 f9 4880
1814 f8cf 60 RTS 80 33 8e a4 f9 4882
1815 d335 c8 INY 80 33 8e a4 fb 4888
1816 d336 48 PHA 80 33 8f a4 fb 4890
1817 d337 a9 LDA 80 33 8f a4 fa 4893
1818 d339 85 STA 7f 33 8f 24 fa 4895
1819 d33b 68 PLA 7f 33 8f 24 fa 4898
1820 d33c c5 CMP 80 33 8f a4 fb 4902
1821 d33e 20 JSR 80 33 8f 25 fb 4905
1822 f8d3 90 BCC 80 33 8f 25 f9 4911
1823 f8d5 f0 BEQ 80 33 8f 25 f9 4913
1824 f8d7 30 BMI 80 33 8f 25 f9 4915
1825 f8d9 60 RTS 80 33 8f 25 f9 4917
1826 d341 c8 INY 80 33 8f 25 fb 4923
1827 d342 a9 LDA 80 33 90 a5 fb 4925
1828 d344 85 STA 40 33 90 25 fb 4927
1829 d346 20 JSR 40 33 90 25 fb 4930
1830 f931 24 BIT 40 33 90 25 f9 4936
1831 f933 a9 LDA 40 33 90 e5 f9 4939
1832 f935 38 SEC 40 33 90 65 f9 4941
1833 f936 60 RTS 40 33 90 65 f9 4943
1834 d349 e5 SBC 40 33 90 65 fb 4949
1835 d34b 20 JSR 00 33 90 27 fb 4952
1836 f937 30 BMI 00 33 90 27 f9 4958
1837 f939 90 BCC 00 33 90 27 f9 4960
1838 f93b d0 BNE 00 33 90 27 f9 4962
1839 f93d 70 BVS 00 33 90 27 f9 4964
1840 f93f c9 CMP 00 33 90 27 f9 4966
1841 f941 d0 BNE 00 33 90 27 f9 4968
1842 f943 60 RTS 00 33 90 27 f9 4970
1843 d34e c8 INY 00 33 90 27 fb 4976
1844 d34f a9 LDA 00 33 91 a5 fb 4978
1845 d351 85 STA 3f 33 91 25 fb 4980
1846 d353 20 JSR 3f 33 91 25 fb 4983
1847 f947 b8 CLV 3f 33 91 25 f9 4989
1848 f948 38 SEC 3f 33 91 25 f9 4991
1849 f949 a9 LDA 3f 33 91 25 f9 4993
1850 f94b 60 RTS 40 33 91 25 f9 4995
1851 d356 e5 SBC 40 33 91 25 fb 5001
1852 d358 20 JSR 01 33 91 25 fb 5004
1853 f94c f0 BEQ 01 33 91 25 f9 5010
1854 f94e 30 BMI 01 33 91 25 f9 5012
1855 f950 90 BCC 01 33 91 25 f9 5014
1856 f952 70 BVS 01 33 91 25 f9 5016
1857 f954 c9 CMP 01 33 91 25 f9 5018
1858 f956 d0 BNE 01 33 91 27 f9 5020
1859 f958 60 RTS 01 33 91 27 f9 5022
1860 d35b c8 INY 01 33 91 27 fb 5028
1861 d35c a9 LDA 01 33 92 a5 fb 5030
1862 d35e 85 STA 41 33 92 25 fb 5032
1863 d360 20 JSR 41 33 92 25 fb 5035
1864 f95c a9 LDA 41 33 92 25 f9 5041
1865 f95e 38 SEC 40 33 92 25 f9 5043
1866 f95f 24 BIT 40 33 92 25 f9 5045
1867 f961 60 RTS 40 33 92 e5 f9 5048
1868 d363 e5 SBC 40 33 92 e5 fb 5054
1869 d365 20 JSR ff 33 92 a4 fb 5057
1870 f962 b0 BCS ff 33 92 a4 f9 5063
1871 f964 f0 BEQ ff 33 92 a4 f9 5065
1872 f966 10 BPL ff 33 92 a4 f9 5067
1873 f968 70 BVS ff 33 92 a4 f9 5069
1874 f96a c9 CMP ff 33 92 a4 f9 5071
1875 f96c d0 BNE ff 33 92 27 f9 5073
1876 f96e 60 RTS ff 33 92 27 f9 5075
1877 d368 c8 INY ff 33 92 27 fb 5081
1878 d369 a9 LDA ff 33 93 a5 fb 5083
1879 d36b 85 STA 00 33 93 27 fb 5085
1880 d36d 20 JSR 00 33 93 27 fb 5088
1881 f972 18 CLC 00 33 93 27 f9 5094
1882 f973 a9 LDA 00 33 93 26 f9 5096
1883 f975 60 RTS 80 33 93 a4 f9 5098
1884 d370 e5 SBC 80 33 93 a4 fb 5104
1885 d372 20 JSR 7f 33 93 65 fb 5107
1886 f976 90 BCC 7f 33 93 65 f9 5113
1887 f978 c9 CMP 7f 33 93 65 f9 5115
1888 f97a d0 BNE 7f 33 93 67 f9 5117
1889 f97c 60 RTS 7f 33 93 67 f9 5119
1890 d375 c8 INY 7f 33 93 67 fb 5125
1891 d376 a9 LDA 7f 33 94 e5 fb 5127
1892 d378 85 STA 7f 33 94 65 fb 5129
1893 d37a 20 JSR 7f 33 94 65 fb 5132
1894 f980 38 SEC 7f 33 94 65 f9 5138
1895 f981 a9 LDA 7f 33 94 65 f9 5140
1896 f983 60 RTS 81 33 94 e5 f9 5142
1897 d37d e5 SBC 81 33 94 e5 fb 5148
1898 d37f 20 JSR 02 33 94 65 fb 5151
1899 f984 50 BVC 02 33 94 65 f9 5157
1900 f986 90 BCC 02 33 94 65 f9 5159
1901 f988 c9 CMP 02 33 94 65 f9 5161
1902 f98a d0 BNE 02 33 94 67 f9 5163
1903 f98c 60 RTS 02 33 94 67 f9 5165
1904 d382 c8 INY 02 33 94 67 fb 5171
1905 d383 a9 LDA 02 33 95 e5 fb 5173
1906 d385 85 STA 40 33 95 65 fb 5175
1907 d387 20 JSR 40 33 95 65 fb 5178
1908 f889 24 BIT 40 33 95 65 f9 5184
1909 f88b a9 LDA 40 33 95 e5 f9 5187
1910 f88d 60 RTS 40 33 95 65 f9 5189
1911 d38a aa TAX 40 33 95 65 fb 5195
1912 d38b e4 CPX 40 40 95 65 fb 5197
1913 d38d 20 JSR 40 40 95 67 fb 5200
1914 f88e 30 BMI 40 40 95 67 f9 5206
1915 f890 90 BCC 40 40 95 67 f9 5208
1916 f892 d0 BNE 40 40 95 67 f9 5210
1917 f894 50 BVC 40 40 95 67 f9 5212
1918 f896 60 RTS 40 40 95 67 f9 5214
1919 d390 c8 INY 40 40 95 67 fb 5220
1920 d391 a9 LDA 40 40 96 e5 fb 5222
1921 d393 85 STA 3f 40 96 65 fb 5224
1922 d395 20 JSR 3f 40 96 65 fb 5227
1923 f89a b8 CLV 3f 40 96 65 f9 5233
1924 f89b 60 RTS 3f 40 96 25 f9 5235
1925 d398 e4 CPX 3f 40 96 25 fb 5241
1926 d39a 20 JSR 3f 40 96 25 fb 5244
1927 f89c f0 BEQ 3f 40 96 25 f9 5250
1928 f89e 30 BMI 3f 40 96 25 f9 5252
1929 f8a0 90 BCC 3f 40 96 25 f9 5254
1930 f8a2 70 BVS 3f 40 96 25 f9 5256
1931 f8a4 60 RTS 3f 40 96 25 f9 5258
1932 d39d c8 INY 3f 40 96 25 fb 5264
1933 d39e a9 LDA 3f 40 97 a5 fb 5266
1934 d3a0 85 STA 41 40 97 25 fb 5268
1935 d3a2 e4 CPX 41 40 97 25 fb 5271
1936 d3a4 20 JSR 41 40 97 a4 fb 5274
1937 f8a8 f0 BEQ 41 40 97 a4 f9 5280
1938 f8aa 10 BPL 41 40 97 a4 f9 5282
1939 f8ac 10 BPL 41 40 97 a4 f9 5284
1940 f8ae 60 RTS 41 40 97 a4 f9 5286
1941 d3a7 c8 INY 41 40 97 a4 fb 5292
1942 d3a8 a9 LDA 41 40 98 a4 fb 5294
1943 d3aa 85 STA 00 40 98 26 fb 5296
1944 d3ac 20 JSR 00 40 98 26 fb 5299
1945 f8b2 a9 LDA 00 40 98 26 f9 5305
1946 f8b4 60 RTS 80 40 98 a4 f9 5307
1947 d3af aa TAX 80 40 98 a4 fb 5313
1948 d3b0 e4 CPX 80 80 98 a4 fb 5315
1949 d3b2 20 JSR 80 80 98 a5 fb 5318
1950 f8b5 f0 BEQ 80 80 98 a5 f9 5324
1951 f8b7 10 BPL 80 80 98 a5 f9 5326
1952 f8b9 90 BCC 80 80 98 a5 f9 5328
1953 f8bb 60 RTS 80 80 98 a5 f9 5330
1954 d3b5 c8 INY 80 80 98 a5 fb 5336
1955 d3b6 a9 LDA 80 80 99 a5 fb 5338
1956 d3b8 85 STA 80 80 99 a5 fb 5340
1957 d3ba e4 CPX 80 80 99 a5 fb 5343
1958 d3bc 20 JSR 80 80 99 27 fb 5346
1959 f8bf d0 BNE 80 80 99 27 f9 5352
1960 f8c1 30 BMI 80 80 99 27 f9 5354
1961 f8c3 90 BCC 80 80 99 27 f9 5356
1962 f8c5 60 RTS 80 80 99 27 f9 5358
1963 d3bf c8 INY 80 80 99 27 fb 5364
1964 d3c0 a9 LDA 80 80 9a a5 fb 5366
1965 d3c2 85 STA 81 80 9a a5 fb 5368
1966 d3c4 e4 CPX 81 80 9a a5 fb 5371
1967 d3c6 20 JSR 81 80 9a a4 fb 5374
1968 f8c9 b0 BCS 81 80 9a a4 f9 5380
1969 f8cb f0 BEQ 81 80 9a a4 f9 5382
1970 f8cd 10 BPL 81 80 9a a4 f9 5384
1971 f8cf 60 RTS 81 80 9a a4 f9 5386
1972 d3c9 c8 INY 81 80 9a a4 fb 5392
1973 d3ca a9 LDA 81 80 9b a4 fb 5394
1974 d3cc 85 STA 7f 80 9b 24 fb 5396
1975 d3ce e4 CPX 7f 80 9b 24 fb 5399
1976 d3d0 20 JSR 7f 80 9b 25 fb 5402
1977 f8d3 90 BCC 7f 80 9b 25 f9 5408
1978 f8d5 f0 BEQ 7f 80 9b 25 f9 5410
1979 f8d7 30 BMI 7f 80 9b 25 f9 5412
1980 f8d9 60 RTS 7f 80 9b 25 f9 5414
1981 d3d3 c8 INY 7f 80 9b 25 fb 5420
1982 d3d4 98 TYA 7f 80 9c a5 fb 5422
1983 d3d5 aa TAX 9c 80 9c a5 fb 5424
1984 d3d6 a9 LDA 9c 9c 9c a5 fb 5426
1985 d3d8 85 STA 40 9c 9c 25 fb 5428
1986 d3da 20 JSR 40 9c 9c 25 fb 5431
1987 f8dd 24 BIT 40 9c 9c 25 f9 5437
1988 f8df a0 LDY 40 9c 9c e5 f9 5440
1989 f8e1 60 RTS 40 9c 40 65 f9 5442
1990 d3dd c4 CPY 40 9c 40 65 fb 5448
1991 d3df 20 JSR 40 9c 40 67 fb 5451
1992 f8e2 30 BMI 40 9c 40 67 f9 5457
1993 f8e4 90 BCC 40 9c 40 67 f9 5459
1994 f8e6 d0 BNE 40 9c 40 67 f9 5461
1995 f8e8 50 BVC 40 9c 40 67 f9 5463
1996 f8ea 60 RTS 40 9c 40 67 f9 5465
1997 d3e2 e8 INX 40 9c 40 67 fb 5471
1998 d3e3 a9 LDA 40 9d 40 e5 fb 5473
1999 d3e5 85 STA 3f 9d 40 65 fb 5475
2000 d3e7 20 JSR 3f 9d 40 65 fb 5478
2001 f8ee b8 CLV 3f 9d 40 65 f9 5484
2002 f8ef 60 RTS 3f 9d 40 25 f9 5486
2003 d3ea c4 CPY 3f 9d 40 25 fb 5492
2004 d3ec 20 JSR 3f 9d 40 25 fb 5495
2005 f8f0 f0 BEQ 3f 9d 40 25 f9 5501
2006 f8f2 30 BMI 3f 9d 40 25 f9 5503
2007 f8f4 90 BCC 3f 9d 40 25 f9 5505
2008 f8f6 70 BVS 3f 9d 40 25 f9 5507
2009 f8f8 60 RTS 3f 9d 40 25 f9 5509
2010 d3ef e8 INX 3f 9d 40 25 fb 5515
2011 d3f0 a9 LDA 3f 9e 40 a5 fb 5517
2012 d3f2 85 STA 41 9e 40 25 fb 5519
2013 d3f4 c4 CPY 41 9e 40 25 fb 5522
2014 d3f6 20 JSR 41 9e 40 a4 fb 5525
2015 f8fc f0 BEQ 41 9e 40 a4 f9 5531
2016 f8fe 10 BPL 41 9e 40 a4 f9 5533
2017 f900 10 BPL 41 9e 40 a4 f9 5535
2018 f902 60 RTS 41 9e 40 a4 f9 5537
2019 d3f9 e8 INX 41 9e 40 a4 fb 5543
2020 d3fa a9 LDA 41 9f 40 a4 fb 5545
2021 d3fc 85 STA 00 9f 40 26 fb 5547
2022 d3fe 20 JSR 00 9f 40 26 fb 5550
2023 f906 a0 LDY 00 9f 40 26 f9 5556
2024 f908 60 RTS 00 9f 80 a4 f9 5558
2025 d401 c4 CPY 00 9f 80 a4 fb 5564
2026 d403 20 JSR 00 9f 80 a5 fb 5567
2027 f909 f0 BEQ 00 9f 80 a5 f9 5573
2028 f90b 10 BPL 00 9f 80 a5 f9 5575
2029 f90d 90 BCC 00 9f 80 a5 f9 5577
2030 f90f 60 RTS 00 9f 80 a5 f9 5579
2031 d406 e8 INX 00 9f 80 a5 fb 5585
2032 d407 a9 LDA 00 a0 80 a5 fb 5587
2033 d409 85 STA 80 a0 80 a5 fb 5589
2034 d40b c4 CPY 80 a0 80 a5 fb 5592
2035 d40d 20 JSR 80 a0 80 27 fb 5595
2036 f913 d0 BNE 80 a0 80 27 f9 5601
2037 f915 30 BMI 80 a0 80 27 f9 5603
2038 f917 90 BCC 80 a0 80 27 f9 5605
2039 f919 60 RTS 80 a0 80 27 f9 5607
2040 d410 e8 INX 80 a0 80 27 fb 5613
2041 d411 a9 LDA 80 a1 80 a5 fb 5615
2042 d413 85 STA 81 a1 80 a5 fb 5617
2043 d415 c4 CPY 81 a1 80 a5 fb 5620
2044 d417 20 JSR 81 a1 80 a4 fb 5623
2045 f91d b0 BCS 81 a1 80 a4 f9 5629
2046 f91f f0 BEQ 81 a1 80 a4 f9 5631
2047 f921 10 BPL 81 a1 80 a4 f9 5633
2048 f923 60 RTS 81 a1 80 a4 f9 5635
2049 d41a e8 INX 81 a1 80 a4 fb 5641
2050 d41b a9 LDA 81 a2 80 a4 fb 5643
2051 d41d 85 STA 7f a2 80 24 fb 5645
2052 d41f c4 CPY 7f a2 80 24 fb 5648
2053 d421 20 JSR 7f a2 80 25 fb 5651
2054 f927 90 BCC 7f a2 80 25 f9 5657
2055 f929 f0 BEQ 7f a2 80 25 f9 5659
2056 f92b 30 BMI 7f a2 80 25 f9 5661
2057 f92d 60 RTS 7f a2 80 25 f9 5663
2058 d424 e8 INX 7f a2 80 25 fb 5669
2059 d425 8a TXA 7f a3 80 a5 fb 5671
2060 d426 a8 TAY a3 a3 80 a5 fb 5673
2061 d427 20 JSR a3 a3 a3 a5 fb 5675
2062 f990 a2 LDX a3 a3 a3 a5 f9 5681
2063 f992 a9 LDA a3 55 a3 25 f9 5683
2064 f994 85 STA ff 55 a3 a5 f9 5685
2065 f996 ea NOP ff 55 a3 a5 f9 5688
2066 f997 24 BIT ff 55 a3 a5 f9 5690
2067 f999 38 SEC ff 55 a3 e5 f9 5693
2068 f99a a9 LDA ff 55 a3 e5 f9 5695
2069 f99c 60 RTS 01 55 a3 65 f9 5697
2070 d42a 85 STA 01 55 a3 65 fb 5703
2071 d42c 46 LSR 01 55 a3 65 fb 5706
2072 d42e a5 LDA 01 55 a3 67 fb 5711
2073 d430 20 JSR 00 55 a3 67 fb 5714
2074 f99d 90 BCC 00 55 a3 67 f9 5720
2075 f99f d0 BNE 00 55 a3 67 f9 5722
2076 f9a1 30 BMI 00 55 a3 67 f9 5724
2077 f9a3 50 BVC 00 55 a3 67 f9 5726
2078 f9a5 c9 CMP 00 55 a3 67 f9 5728
2079 f9a7 d0 BNE 00 55 a3 67 f9 5730
2080 f9a9 b8 CLV 00 55 a3 67 f9 5732
2081 f9aa a9 LDA 00 55 a3 27 f9 5734
2082 f9ac 60 RTS aa 55 a3 a5 f9 5736
2083 d433 c8 INY aa 55 a3 a5 fb 5742
2084 d434 85 STA aa 55 a4 a5 fb 5744
2085 d436 46 LSR aa 55 a4 a5 fb 5747
2086 d438 a5 LDA aa 55 a4 24 fb 5752
2087 d43a 20 JSR 55 55 a4 24 fb 5755
2088 f9ad b0 BCS 55 55 a4 24 f9 5761
2089 f9af f0 BEQ 55 55 a4 24 f9 5763
2090 f9b1 30 BMI 55 55 a4 24 f9 5765
2091 f9b3 70 BVS 55 55 a4 24 f9 5767
2092 f9b5 c9 CMP 55 55 a4 24 f9 5769
2093 f9b7 d0 BNE 55 55 a4 27 f9 5771
2094 f9b9 60 RTS 55 55 a4 27 f9 5773
2095 d43d c8 INY 55 55 a4 27 fb 5779
2096 d43e 20 JSR 55 55 a5 a5 fb 5781
2097 f9bd 24 BIT 55 55 a5 a5 f9 5787
2098 f9bf 38 SEC 55 55 a5 e5 f9 5790
2099 f9c0 a9 LDA 55 55 a5 e5 f9 5792
2100 f9c2 60 RTS 80 55 a5 e5 f9 5794
2101 d441 85 STA 80 55 a5 e5 fb 5800
2102 d443 06 ASL 80 55 a5 e5 fb 5803
2103 d445 a5 LDA 80 55 a5 67 fb 5808
2104 d447 20 JSR 00 55 a5 67 fb 5811
2105 f9c3 90 BCC 00 55 a5 67 f9 5817
2106 f9c5 d0 BNE 00 55 a5 67 f9 5819
2107 f9c7 30 BMI 00 55 a5 67 f9 5821
2108 f9c9 50 BVC 00 55 a5 67 f9 5823
2109 f9cb c9 CMP 00 55 a5 67 f9 5825
2110 f9cd d0 BNE 00 55 a5 67 f9 5827
2111 f9cf b8 CLV 00 55 a5 67 f9 5829
2112 f9d0 a9 LDA 00 55 a5 27 f9 5831
2113 f9d2 38 SEC 55 55 a5 25 f9 5833
2114 f9d3 60 RTS 55 55 a5 25 f9 5835
2115 d44a c8 INY 55 55 a5 25 fb 5841
2116 d44b 85 STA 55 55 a6 a5 fb 5843
2117 d44d 06 ASL 55 55 a6 a5 fb 5846
2118 d44f a5 LDA 55 55 a6 a4 fb 5851
2119 d451 20 JSR aa 55 a6 a4 fb 5854
2120 f9d4 b0 BCS aa 55 a6 a4 f9 5860
2121 f9d6 f0 BEQ aa 55 a6 a4 f9 5862
2122 f9d8 10 BPL aa 55 a6 a4 f9 5864
2123 f9da 70 BVS aa 55 a6 a4 f9 5866
2124 f9dc c9 CMP aa 55 a6 a4 f9 5868
2125 f9de d0 BNE aa 55 a6 27 f9 5870
2126 f9e0 60 RTS aa 55 a6 27 f9 5872
2127 d454 c8 INY aa 55 a6 27 fb 5878
2128 d455 20 JSR aa 55 a7 a5 fb 5880
2129 f9e4 24 BIT aa 55 a7 a5 f9 5886
2130 f9e6 38 SEC aa 55 a7 e5 f9 5889
2131 f9e7 a9 LDA aa 55 a7 e5 f9 5891
2132 f9e9 60 RTS 01 55 a7 65 f9 5893
2133 d458 85 STA 01 55 a7 65 fb 5899
2134 d45a 66 ROR 01 55 a7 65 fb 5902
2135 d45c a5 LDA 01 55 a7 e5 fb 5907
2136 d45e 20 JSR 80 55 a7 e5 fb 5910
2137 f9ea 90 BCC 80 55 a7 e5 f9 5916
2138 f9ec f0 BEQ 80 55 a7 e5 f9 5918
2139 f9ee 10 BPL 80 55 a7 e5 f9 5920
2140 f9f0 50 BVC 80 55 a7 e5 f9 5922
2141 f9f2 c9 CMP 80 55 a7 e5 f9 5924
2142 f9f4 d0 BNE 80 55 a7 67 f9 5926
2143 f9f6 b8 CLV 80 55 a7 67 f9 5928
2144 f9f7 18 CLC 80 55 a7 27 f9 5930
2145 f9f8 a9 LDA 80 55 a7 26 f9 5932
2146 f9fa 60 RTS 55 55 a7 24 f9 5934
2147 d461 c8 INY 55 55 a7 24 fb 5940
2148 d462 85 STA 55 55 a8 a4 fb 5942
2149 d464 66 ROR 55 55 a8 a4 fb 5945
2150 d466 a5 LDA 55 55 a8 25 fb 5950
2151 d468 20 JSR 2a 55 a8 25 fb 5953
2152 f9fb 90 BCC 2a 55 a8 25 f9 5959
2153 f9fd f0 BEQ 2a 55 a8 25 f9 5961
2154 f9ff 30 BMI 2a 55 a8 25 f9 5963
2155 fa01 70 BVS 2a 55 a8 25 f9 5965
2156 fa03 c9 CMP 2a 55 a8 25 f9 5967
2157 fa05 d0 BNE 2a 55 a8 27 f9 5969
2158 fa07 60 RTS 2a 55 a8 27 f9 5971
2159 d46b c8 INY 2a 55 a8 27 fb 5977
2160 d46c 20 JSR 2a 55 a9 a5 fb 5979
2161 fa0a 24 BIT 2a 55 a9 a5 f9 5985
2162 fa0c 38 SEC 2a 55 a9 e5 f9 5988
2163 fa0d a9 LDA 2a 55 a9 e5 f9 5990
2164 fa0f 60 RTS 80 55 a9 e5 f9 5992
2165 d46f 85 STA 80 55 a9 e5 fb 5998
2166 d471 26 ROL 80 55 a9 e5 fb 6001
2167 d473 a5 LDA 80 55 a9 65 fb 6006
2168 d475 20 JSR 01 55 a9 65 fb 6009
2169 fa10 90 BCC 01 55 a9 65 f9 6015
2170 fa12 f0 BEQ 01 55 a9 65 f9 6017
2171 fa14 30 BMI 01 55 a9 65 f9 6019
2172 fa16 50 BVC 01 55 a9 65 f9 6021
2173 fa18 c9 CMP 01 55 a9 65 f9 6023
2174 fa1a d0 BNE 01 55 a9 67 f9 6025
2175 fa1c b8 CLV 01 55 a9 67 f9 6027
2176 fa1d 18 CLC 01 55 a9 27 f9 6029
2177 fa1e a9 LDA 01 55 a9 26 f9 6031
2178 fa20 60 RTS 55 55 a9 24 f9 6033
2179 d478 c8 INY 55 55 a9 24 fb 6039
2180 d479 85 STA 55 55 aa a4 fb 6041
2181 d47b 26 ROL 55 55 aa a4 fb 6044
2182 d47d a5 LDA 55 55 aa a4 fb 6049
2183 d47f 20 JSR aa 55 aa a4 fb 6052
2184 fa21 b0 BCS aa 55 aa a4 f9 6058
2185 fa23 f0 BEQ aa 55 aa a4 f9 6060
2186 fa25 10 BPL aa 55 aa a4 f9 6062
2187 fa27 70 BVS aa 55 aa a4 f9 6064
2188 fa29 c9 CMP aa 55 aa a4 f9 6066
2189 fa2b d0 BNE aa 55 aa 27 f9 6068
2190 fa2d 60 RTS aa 55 aa 27 f9 6070
2191 d482 a9 LDA aa 55 aa 27 fb 6076
2192 d484 85 STA ff 55 aa a5 fb 6078
2193 d486 85 STA ff 55 aa a5 fb 6081
2194 d488 24 BIT ff 55 aa a5 fb 6084
2195 d48a 38 SEC ff 55 aa e5 fb 6087
2196 d48b e6 INC ff 55 aa e5 fb 6089
2197 d48d d0 BNE ff 55 aa 67 fb 6094
2198 d48f 30 BMI ff 55 aa 67 fb 6096
2199 d491 50 BVC ff 55 aa 67 fb 6098
2200 d493 90 BCC ff 55 aa 67 fb 6100
2201 d495 a5 LDA ff 55 aa 67 fb 6102
2202 d497 c9 CMP 00 55 aa 67 fb 6105
2203 d499 f0 BEQ 00 55 aa 67 fb 6107
2204 d49f a9 LDA 00 55 aa 67 fb 6110
2205 d4a1 85 STA 7f 55 aa 65 fb 6112
2206 d4a3 b8 CLV 7f 55 aa 65 fb 6115
2207 d4a4 18 CLC 7f 55 aa 25 fb 6117
2208 d4a5 e6 INC 7f 55 aa 24 fb 6119
2209 d4a7 f0 BEQ 7f 55 aa a4 fb 6124
2210 d4a9 10 BPL 7f 55 aa a4 fb 6126
2211 d4ab 70 BVS 7f 55 aa a4 fb 6128
2212 d4ad b0 BCS 7f 55 aa a4 fb 6130
2213 d4af a5 LDA 7f 55 aa a4 fb 6132
2214 d4b1 c9 CMP 80 55 aa a4 fb 6135
2215 d4b3 f0 BEQ 80 55 aa 27 fb 6137
2216 d4b9 a9 LDA 80 55 aa 27 fb 6140
2217 d4bb 85 STA 00 55 aa 27 fb 6142
2218 d4bd 24 BIT 00 55 aa 27 fb 6145
2219 d4bf 38 SEC 00 55 aa e7 fb 6148
2220 d4c0 c6 DEC 00 55 aa e7 fb 6150
2221 d4c2 f0 BEQ 00 55 aa e5 fb 6155
2222 d4c4 10 BPL 00 55 aa e5 fb 6157
2223 d4c6 50 BVC 00 55 aa e5 fb 6159
2224 d4c8 90 BCC 00 55 aa e5 fb 6161
2225 d4ca a5 LDA 00 55 aa e5 fb 6163
2226 d4cc c9 CMP ff 55 aa e5 fb 6166
2227 d4ce f0 BEQ ff 55 aa 67 fb 6168
2228 d4d4 a9 LDA ff 55 aa 67 fb 6171
2229 d4d6 85 STA 80 55 aa e5 fb 6173
2230 d4d8 b8 CLV 80 55 aa e5 fb 6176
2231 d4d9 18 CLC 80 55 aa a5 fb 6178
2232 d4da c6 DEC 80 55 aa a4 fb 6180
2233 d4dc f0 BEQ 80 55 aa 24 fb 6185
2234 d4de 30 BMI 80 55 aa 24 fb 6187
2235 d4e0 70 BVS 80 55 aa 24 fb 6189
2236 d4e2 b0 BCS 80 55 aa 24 fb 6191
2237 d4e4 a5 LDA 80 55 aa 24 fb 6193
2238 d4e6 c9 CMP 7f 55 aa 24 fb 6196
2239 d4e8 f0 BEQ 7f 55 aa 27 fb 6198
2240 d4ee a9 LDA 7f 55 aa 27 fb 6201
2241 d4f0 85 STA 01 55 aa 25 fb 6203
2242 d4f2 c6 DEC 01 55 aa 25 fb 6206
2243 d4f4 f0 BEQ 01 55 aa 27 fb 6211
2244 d4fa 60 RTS 01 55 aa 27 fb 6214
2245 c615 20 JSR 01 55 aa 27 fd 6220
2246 d4fb a9 LDA 01 55 aa 27 fb 6226
2247 d4fd 8d STA 55 55 aa 25 fb 6228
2248 d500 a9 LDA 55 55 aa 25 fb 6232
2249 d502 85 STA ff 55 aa a5 fb 6234
2250 d504 24 BIT ff 55 aa a5 fb 6237
2251 d506 a0 LDY ff 55 aa e5 fb 6240
2252 d508 a2 LDX ff 55 11 65 fb 6242
2253 d50a a9 LDA ff 23 11 65 fb 6244
2254 d50c ad LDA 00 23 11 67 fb 6246
2255 d50f f0 BEQ 55 23 11 65 fb 6250
2256 d511 30 BMI 55 23 11 65 fb 6252
2257 d513 c9 CMP 55 23 11 65 fb 6254
2258 d515 d0 BNE 55 23 11 67 fb 6256
2259 d517 c0 CPY 55 23 11 67 fb 6258
2260 d519 d0 BNE 55 23 11 67 fb 6260
2261 d51b e0 CPX 55 23 11 67 fb 6262
2262 d51d 50 BVC 55 23 11 67 fb 6264
2263 d51f f0 BEQ 55 23 11 67 fb 6266
2264 d525 a9 LDA 55 23 11 67 fb 6269
2265 d527 24 BIT 46 23 11 65 fb 6271
2266 d529 8d STA 46 23 11 e5 fb 6274
2267 d52c f0 BEQ 46 23 11 e5 fb 6278
2268 d52e 10 BPL 46 23 11 e5 fb 6280
2269 d530 50 BVC 46 23 11 e5 fb 6282
2270 d532 ad LDA 46 23 11 e5 fb 6284
2271 d535 c9 CMP 46 23 11 65 fb 6288
2272 d537 f0 BEQ 46 23 11 67 fb 6290
2273 d53d a9 LDA 46 23 11 67 fb 6293
2274 d53f 8d STA 55 23 11 65 fb 6295
2275 d542 24 BIT 55 23 11 65 fb 6299
2276 d544 a9 LDA 55 23 11 e5 fb 6302
2277 d546 a2 LDX 11 23 11 65 fb 6304
2278 d548 a0 LDY 11 23 11 65 fb 6306
2279 d54a ac LDY 11 23 00 67 fb 6308
2280 d54d f0 BEQ 11 23 55 65 fb 6312
2281 d54f 30 BMI 11 23 55 65 fb 6314
2282 d551 c0 CPY 11 23 55 65 fb 6316
2283 d553 d0 BNE 11 23 55 67 fb 6318
2284 d555 c9 CMP 11 23 55 67 fb 6320
2285 d557 d0 BNE 11 23 55 67 fb 6322
2286 d559 e0 CPX 11 23 55 67 fb 6324
2287 d55b 50 BVC 11 23 55 67 fb 6326
2288 d55d f0 BEQ 11 23 55 67 fb 6328
2289 d563 a0 LDY 11 23 55 67 fb 6331
2290 d565 24 BIT 11 23 46 65 fb 6333
2291 d567 8c STY 11 23 46 e5 fb 6336
2292 d56a f0 BEQ 11 23 46 e5 fb 6340
2293 d56c 10 BPL 11 23 46 e5 fb 6342
2294 d56e 50 BVC 11 23 46 e5 fb 6344
2295 d570 ac LDY 11 23 46 e5 fb 6346
2296 d573 c0 CPY 11 23 46 65 fb 6350
2297 d575 f0 BEQ 11 23 46 67 fb 6352
2298 d57b 24 BIT 11 23 46 67 fb 6355
2299 d57d a9 LDA 11 23 46 e5 fb 6358
2300 d57f 8d STA 55 23 46 65 fb 6360
2301 d582 a0 LDY 55 23 46 65 fb 6364
2302 d584 a9 LDA 55 23 11 65 fb 6366
2303 d586 a2 LDX 23 23 11 65 fb 6368
2304 d588 ae LDX 23 00 11 67 fb 6370
2305 d58b f0 BEQ 23 55 11 65 fb 6374
2306 d58d 30 BMI 23 55 11 65 fb 6376
2307 d58f e0 CPX 23 55 11 65 fb 6378
2308 d591 d0 BNE 23 55 11 67 fb 6380
2309 d593 c0 CPY 23 55 11 67 fb 6382
2310 d595 d0 BNE 23 55 11 67 fb 6384
2311 d597 c9 CMP 23 55 11 67 fb 6386
2312 d599 50 BVC 23 55 11 67 fb 6388
2313 d59b f0 BEQ 23 55 11 67 fb 6390
2314 d5a1 a2 LDX 23 55 11 67 fb 6393
2315 d5a3 24 BIT 23 46 11 65 fb 6395
2316 d5a5 8e STX 23 46 11 e5 fb 6398
2317 d5a8 f0 BEQ 23 46 11 e5 fb 6402
2318 d5aa 10 BPL 23 46 11 e5 fb 6404
2319 d5ac 50 BVC 23 46 11 e5 fb 6406
2320 d5ae ae LDX 23 46 11 e5 fb 6408
2321 d5b1 e0 CPX 23 46 11 65 fb 6412
2322 d5b3 f0 BEQ 23 46 11 67 fb 6414
2323 d5b9 a9 LDA 23 46 11 67 fb 6417
2324 d5bb 8d STA c0 46 11 e5 fb 6419
2325 d5be a2 LDX c0 46 11 e5 fb 6423
2326 d5c0 a0 LDY c0 33 11 65 fb 6425
2327 d5c2 a9 LDA c0 33 88 e5 fb 6427
2328 d5c4 2c BIT 05 33 88 65 fb 6429
2329 d5c7 10 BPL 05 33 88 e7 fb 6433
2330 d5c9 50 BVC 05 33 88 e7 fb 6435
2331 d5cb d0 BNE 05 33 88 e7 fb 6437
2332 d5cd c9 CMP 05 33 88 e7 fb 6439
2333 d5cf d0 BNE 05 33 88 67 fb 6441
2334 d5d1 e0 CPX 05 33 88 67 fb 6443
2335 d5d3 d0 BNE 05 33 88 67 fb 6445
2336 d5d5 c0 CPY 05 33 88 67 fb 6447
2337 d5d7 f0 BEQ 05 33 88 67 fb 6449
2338 d5dd a9 LDA 05 33 88 67 fb 6452
2339 d5df 8d STA 03 33 88 65 fb 6454
2340 d5e2 a9 LDA 03 33 88 65 fb 6458
2341 d5e4 2c BIT 01 33 88 65 fb 6460
2342 d5e7 30 BMI 01 33 88 25 fb 6464
2343 d5e9 70 BVS 01 33 88 25 fb 6466
2344 d5eb f0 BEQ 01 33 88 25 fb 6468
2345 d5ed c9 CMP 01 33 88 25 fb 6470
2346 d5ef f0 BEQ 01 33 88 27 fb 6472
2347 d5f5 a0 LDY 01 33 88 27 fb 6475
2348 d5f7 a9 LDA 01 33 b8 a5 fb 6477
2349 d5f9 8d STA aa 33 b8 a5 fb 6479
2350 d5fc 20 JSR aa 33 b8 a5 fb 6483
2351 f7b6 18 CLC aa 33 b8 a5 f9 6489
2352 f7b7 a9 LDA aa 33 b8 a4 f9 6491
2353 f7b9 85 STA ff 33 b8 a4 f9 6493
2354 f7bb 24 BIT ff 33 b8 a4 f9 6496
2355 f7bd a9 LDA ff 33 b8 e4 f9 6499
2356 f7bf 60 RTS 55 33 b8 64 f9 6501
2357 d5ff 0d ORA 55 33 b8 64 fb 6507
2358 d602 20 JSR ff 33 b8 e4 fb 6511
2359 f7c0 b0 BCS ff 33 b8 e4 f9 6517
2360 f7c2 10 BPL ff 33 b8 e4 f9 6519
2361 f7c4 c9 CMP ff 33 b8 e4 f9 6521
2362 f7c6 d0 BNE ff 33 b8 67 f9 6523
2363 f7c8 50 BVC ff 33 b8 67 f9 6525
2364 f7ca 60 RTS ff 33 b8 67 f9 6527
2365 d605 c8 INY ff 33 b8 67 fb 6533
2366 d606 a9 LDA ff 33 b9 e5 fb 6535
2367 d608 8d STA 00 33 b9 67 fb 6537
2368 d60b 20 JSR 00 33 b9 67 fb 6541
2369 f7ce 38 SEC 00 33 b9 67 f9 6547
2370 f7cf b8 CLV 00 33 b9 67 f9 6549
2371 f7d0 a9 LDA 00 33 b9 27 f9 6551
2372 f7d2 60 RTS 00 33 b9 27 f9 6553
2373 d60e 0d ORA 00 33 b9 27 fb 6559
2374 d611 20 JSR 00 33 b9 27 fb 6563
2375 f7d3 d0 BNE 00 33 b9 27 f9 6569
2376 f7d5 70 BVS 00 33 b9 27 f9 6571
2377 f7d7 90 BCC 00 33 b9 27 f9 6573
2378 f7d9 30 BMI 00 33 b9 27 f9 6575
2379 f7db 60 RTS 00 33 b9 27 f9 6577
2380 d614 c8 INY 00 33 b9 27 fb 6583
2381 d615 a9 LDA 00 33 ba a5 fb 6585
2382 d617 8d STA aa 33 ba a5 fb 6587
2383 d61a 20 JSR aa 33 ba a5 fb 6591
2384 f7df 18 CLC aa 33 ba a5 f9 6597
2385 f7e0 24 BIT aa 33 ba a4 f9 6599
2386 f7e2 a9 LDA aa 33 ba e4 f9 6602
2387 f7e4 60 RTS 55 33 ba 64 f9 6604
2388 d61d 2d AND 55 33 ba 64 fb 6610
2389 d620 20 JSR 00 33 ba 66 fb 6614
2390 f7e5 d0 BNE 00 33 ba 66 f9 6620
2391 f7e7 50 BVC 00 33 ba 66 f9 6622
2392 f7e9 b0 BCS 00 33 ba 66 f9 6624
2393 f7eb 30 BMI 00 33 ba 66 f9 6626
2394 f7ed 60 RTS 00 33 ba 66 f9 6628
2395 d623 c8 INY 00 33 ba 66 fb 6634
2396 d624 a9 LDA 00 33 bb e4 fb 6636
2397 d626 8d STA ef 33 bb e4 fb 6638
2398 d629 20 JSR ef 33 bb e4 fb 6642
2399 f7f1 38 SEC ef 33 bb e4 f9 6648
2400 f7f2 b8 CLV ef 33 bb e5 f9 6650
2401 f7f3 a9 LDA ef 33 bb a5 f9 6652
2402 f7f5 60 RTS f8 33 bb a5 f9 6654
2403 d62c 2d AND f8 33 bb a5 fb 6660
2404 d62f 20 JSR e8 33 bb a5 fb 6664
2405 f7f6 90 BCC e8 33 bb a5 f9 6670
2406 f7f8 10 BPL e8 33 bb a5 f9 6672
2407 f7fa c9 CMP e8 33 bb a5 f9 6674
2408 f7fc d0 BNE e8 33 bb 27 f9 6676
2409 f7fe 70 BVS e8 33 bb 27 f9 6678
2410 f800 60 RTS e8 33 bb 27 f9 6680
2411 d632 c8 INY e8 33 bb 27 fb 6686
2412 d633 a9 LDA e8 33 bc a5 fb 6688
2413 d635 8d STA aa 33 bc a5 fb 6690
2414 d638 20 JSR aa 33 bc a5 fb 6694
2415 f804 18 CLC aa 33 bc a5 f9 6700
2416 f805 24 BIT aa 33 bc a4 f9 6702
2417 f807 a9 LDA aa 33 bc e4 f9 6705
2418 f809 60 RTS 5f 33 bc 64 f9 6707
2419 d63b 4d EOR 5f 33 bc 64 fb 6713
2420 d63e 20 JSR f5 33 bc e4 fb 6717
2421 f80a b0 BCS f5 33 bc e4 f9 6723
2422 f80c 10 BPL f5 33 bc e4 f9 6725
2423 f80e c9 CMP f5 33 bc e4 f9 6727
2424 f810 d0 BNE f5 33 bc 67 f9 6729
2425 f812 50 BVC f5 33 bc 67 f9 6731
2426 f814 60 RTS f5 33 bc 67 f9 6733
2427 d641 c8 INY f5 33 bc 67 fb 6739
2428 d642 a9 LDA f5 33 bd e5 fb 6741
2429 d644 8d STA 70 33 bd 65 fb 6743
2430 d647 20 JSR 70 33 bd 65 fb 6747
2431 f818 38 SEC 70 33 bd 65 f9 6753
2432 f819 b8 CLV 70 33 bd 65 f9 6755
2433 f81a a9 LDA 70 33 bd 25 f9 6757
2434 f81c 60 RTS 70 33 bd 25 f9 6759
2435 d64a 4d EOR 70 33 bd 25 fb 6765
2436 d64d 20 JSR 00 33 bd 27 fb 6769
2437 f81d d0 BNE 00 33 bd 27 f9 6775
2438 f81f 70 BVS 00 33 bd 27 f9 6777
2439 f821 90 BCC 00 33 bd 27 f9 6779
2440 f823 30 BMI 00 33 bd 27 f9 6781
2441 f825 60 RTS 00 33 bd 27 f9 6783
2442 d650 c8 INY 00 33 bd 27 fb 6789
2443 d651 a9 LDA 00 33 be a5 fb 6791
2444 d653 8d STA 69 33 be 25 fb 6793
2445 d656 20 JSR 69 33 be 25 fb 6797
2446 f829 18 CLC 69 33 be 25 f9 6803
2447 f82a 24 BIT 69 33 be 24 f9 6805
2448 f82c a9 LDA 69 33 be e4 f9 6808
2449 f82e 60 RTS 00 33 be 66 f9 6810
2450 d659 6d ADC 00 33 be 66 fb 6816
2451 d65c 20 JSR 69 33 be 24 fb 6820
2452 f82f 30 BMI 69 33 be 24 f9 6826
2453 f831 b0 BCS 69 33 be 24 f9 6828
2454 f833 c9 CMP 69 33 be 24 f9 6830
2455 f835 d0 BNE 69 33 be 27 f9 6832
2456 f837 70 BVS 69 33 be 27 f9 6834
2457 f839 60 RTS 69 33 be 27 f9 6836
2458 d65f c8 INY 69 33 be 27 fb 6842
2459 d660 20 JSR 69 33 bf a5 fb 6844
2460 f83d 38 SEC 69 33 bf a5 f9 6850
2461 f83e 24 BIT 69 33 bf a5 f9 6852
2462 f840 a9 LDA 69 33 bf e5 f9 6855
2463 f842 60 RTS 00 33 bf 67 f9 6857
2464 d663 6d ADC 00 33 bf 67 fb 6863
2465 d666 20 JSR 6a 33 bf 24 fb 6867
2466 f843 30 BMI 6a 33 bf 24 f9 6873
2467 f845 b0 BCS 6a 33 bf 24 f9 6875
2468 f847 c9 CMP 6a 33 bf 24 f9 6877
2469 f849 d0 BNE 6a 33 bf 27 f9 6879
2470 f84b 70 BVS 6a 33 bf 27 f9 6881
2471 f84d 60 RTS 6a 33 bf 27 f9 6883
2472 d669 c8 INY 6a 33 bf 27 fb 6889
2473 d66a a9 LDA 6a 33 c0 a5 fb 6891
2474 d66c 8d STA 7f 33 c0 25 fb 6893
2475 d66f 20 JSR 7f 33 c0 25 fb 6897
2476 f851 38 SEC 7f 33 c0 25 f9 6903
2477 f852 b8 CLV 7f 33 c0 25 f9 6905
2478 f853 a9 LDA 7f 33 c0 25 f9 6907
2479 f855 60 RTS 7f 33 c0 25 f9 6909
2480 d672 6d ADC 7f 33 c0 25 fb 6915
2481 d675 20 JSR ff 33 c0 e4 fb 6919
2482 f856 10 BPL ff 33 c0 e4 f9 6925
2483 f858 b0 BCS ff 33 c0 e4 f9 6927
2484 f85a c9 CMP ff 33 c0 e4 f9 6929
2485 f85c d0 BNE ff 33 c0 67 f9 6931
2486 f85e 50 BVC ff 33 c0 67 f9 6933
2487 f860 60 RTS ff 33 c0 67 f9 6935
2488 d678 c8 INY ff 33 c0 67 fb 6941
2489 d679 a9 LDA ff 33 c1 e5 fb 6943
2490 d67b 8d STA 80 33 c1 e5 fb 6945
2491 d67e 20 JSR 80 33 c1 e5 fb 6949
2492 f864 18 CLC 80 33 c1 e5 f9 6955
2493 f865 24 BIT 80 33 c1 e4 f9 6957
2494 f867 a9 LDA 80 33 c1 e4 f9 6960
2495 f869 60 RTS 7f 33 c1 64 f9 6962
2496 d681 6d ADC 7f 33 c1 64 fb 6968
2497 d684 20 JSR ff 33 c1 a4 fb 6972
2498 f86a 10 BPL ff 33 c1 a4 f9 6978
2499 f86c b0 BCS ff 33 c1 a4 f9 6980
2500 f86e c9 CMP ff 33 c1 a4 f9 6982
2501 f870 d0 BNE ff 33 c1 27 f9 6984
2502 f872 70 BVS ff 33 c1 27 f9 6986
2503 f874 60 RTS ff 33 c1 27 f9 6988
2504 d687 c8 INY ff 33 c1 27 fb 6994
2505 d688 20 JSR ff 33 c2 a5 fb 6996
2506 f878 38 SEC ff 33 c2 a5 f9 7002
2507 f879 b8 CLV ff 33 c2 a5 f9 7004
2508 f87a a9 LDA ff 33 c2 a5 f9 7006
2509 f87c 60 RTS 7f 33 c2 25 f9 7008
2510 d68b 6d ADC 7f 33 c2 25 fb 7014
2511 d68e 20 JSR 00 33 c2 27 fb 7018
2512 f87d d0 BNE 00 33 c2 27 f9 7024
2513 f87f 30 BMI 00 33 c2 27 f9 7026
2514 f881 70 BVS 00 33 c2 27 f9 7028
2515 f883 90 BCC 00 33 c2 27 f9 7030
2516 f885 60 RTS 00 33 c2 27 f9 7032
2517 d691 c8 INY 00 33 c2 27 fb 7038
2518 d692 a9 LDA 00 33 c3 a5 fb 7040
2519 d694 8d STA 40 33 c3 25 fb 7042
2520 d697 20 JSR 40 33 c3 25 fb 7046
2521 f889 24 BIT 40 33 c3 25 f9 7052
2522 f88b a9 LDA 40 33 c3 e5 f9 7055
2523 f88d 60 RTS 40 33 c3 65 f9 7057
2524 d69a cd CMP 40 33 c3 65 fb 7063
2525 d69d 20 JSR 40 33 c3 67 fb 7067
2526 f88e 30 BMI 40 33 c3 67 f9 7073
2527 f890 90 BCC 40 33 c3 67 f9 7075
2528 f892 d0 BNE 40 33 c3 67 f9 7077
2529 f894 50 BVC 40 33 c3 67 f9 7079
2530 f896 60 RTS 40 33 c3 67 f9 7081
2531 d6a0 c8 INY 40 33 c3 67 fb 7087
2532 d6a1 48 PHA 40 33 c4 e5 fb 7089
2533 d6a2 a9 LDA 40 33 c4 e5 fa 7092
2534 d6a4 8d STA 3f 33 c4 65 fa 7094
2535 d6a7 68 PLA 3f 33 c4 65 fa 7098
2536 d6a8 20 JSR 40 33 c4 65 fb 7102
2537 f89a b8 CLV 40 33 c4 65 f9 7108
2538 f89b 60 RTS 40 33 c4 25 f9 7110
2539 d6ab cd CMP 40 33 c4 25 fb 7116
2540 d6ae 20 JSR 40 33 c4 25 fb 7120
2541 f89c f0 BEQ 40 33 c4 25 f9 7126
2542 f89e 30 BMI 40 33 c4 25 f9 7128
2543 f8a0 90 BCC 40 33 c4 25 f9 7130
2544 f8a2 70 BVS 40 33 c4 25 f9 7132
2545 f8a4 60 RTS 40 33 c4 25 f9 7134
2546 d6b1 c8 INY 40 33 c4 25 fb 7140
2547 d6b2 48 PHA 40 33 c5 a5 fb 7142
2548 d6b3 a9 LDA 40 33 c5 a5 fa 7145
2549 d6b5 8d STA 41 33 c5 25 fa 7147
2550 d6b8 68 PLA 41 33 c5 25 fa 7151
2551 d6b9 cd CMP 40 33 c5 25 fb 7155
2552 d6bc 20 JSR 40 33 c5 a4 fb 7159
2553 f8a8 f0 BEQ 40 33 c5 a4 f9 7165
2554 f8aa 10 BPL 40 33 c5 a4 f9 7167
2555 f8ac 10 BPL 40 33 c5 a4 f9 7169
2556 f8ae 60 RTS 40 33 c5 a4 f9 7171
2557 d6bf c8 INY 40 33 c5 a4 fb 7177
2558 d6c0 48 PHA 40 33 c6 a4 fb 7179
2559 d6c1 a9 LDA 40 33 c6 a4 fa 7182
2560 d6c3 8d STA 00 33 c6 26 fa 7184
2561 d6c6 68 PLA 00 33 c6 26 fa 7188
2562 d6c7 20 JSR 40 33 c6 24 fb 7192
2563 f8b2 a9 LDA 40 33 c6 24 f9 7198
2564 f8b4 60 RTS 80 33 c6 a4 f9 7200
2565 d6ca cd CMP 80 33 c6 a4 fb 7206
2566 d6cd 20 JSR 80 33 c6 a5 fb 7210
2567 f8b5 f0 BEQ 80 33 c6 a5 f9 7216
2568 f8b7 10 BPL 80 33 c6 a5 f9 7218
2569 f8b9 90 BCC 80 33 c6 a5 f9 7220
2570 f8bb 60 RTS 80 33 c6 a5 f9 7222
2571 d6d0 c8 INY 80 33 c6 a5 fb 7228
2572 d6d1 48 PHA 80 33 c7 a5 fb 7230
2573 d6d2 a9 LDA 80 33 c7 a5 fa 7233
2574 d6d4 8d STA 80 33 c7 a5 fa 7235
2575 d6d7 68 PLA 80 33 c7 a5 fa 7239
2576 d6d8 cd CMP 80 33 c7 a5 fb 7243
2577 d6db 20 JSR 80 33 c7 27 fb 7247
2578 f8bf d0 BNE 80 33 c7 27 f9 7253
2579 f8c1 30 BMI 80 33 c7 27 f9 7255
2580 f8c3 90 BCC 80 33 c7 27 f9 7257
2581 f8c5 60 RTS 80 33 c7 27 f9 7259
2582 d6de c8 INY 80 33 c7 27 fb 7265
2583 d6df 48 PHA 80 33 c8 a5 fb 7267
2584 d6e0 a9 LDA 80 33 c8 a5 fa 7270
2585 d6e2 8d STA 81 33 c8 a5 fa 7272
2586 d6e5 68 PLA 81 33 c8 a5 fa 7276
2587 d6e6 cd CMP 80 33 c8 a5 fb 7280
2588 d6e9 20 JSR 80 33 c8 a4 fb 7284
2589 f8c9 b0 BCS 80 33 c8 a4 f9 7290
2590 f8cb f0 BEQ 80 33 c8 a4 f9 7292
2591 f8cd 10 BPL 80 33 c8 a4 f9 7294
2592 f8cf 60 RTS 80 33 c8 a4 f9 7296
2593 d6ec c8 INY 80 33 c8 a4 fb 7302
2594 d6ed 48 PHA 80 33 c9 a4 fb 7304
2595 d6ee a9 LDA 80 33 c9 a4 fa 7307
2596 d6f0 8d STA 7f 33 c9 24 fa 7309
2597 d6f3 68 PLA 7f 33 c9 24 fa 7313
2598 d6f4 cd CMP 80 33 c9 a4 fb 7317
2599 d6f7 20 JSR 80 33 c9 25 fb 7321
2600 f8d3 90 BCC 80 33 c9 25 f9 7327
2601 f8d5 f0 BEQ 80 33 c9 25 f9 7329
2602 f8d7 30 BMI 80 33 c9 25 f9 7331
2603 f8d9 60 RTS 80 33 c9 25 f9 7333
2604 d6fa c8 INY 80 33 c9 25 fb 7339
2605 d6fb a9 LDA 80 33 ca a5 fb 7341
2606 d6fd 8d STA 40 33 ca 25 fb 7343
2607 d700 20 JSR 40 33 ca 25 fb 7347
2608 f931 24 BIT 40 33 ca 25 f9 7353
2609 f933 a9 LDA 40 33 ca e5 f9 7356
2610 f935 38 SEC 40 33 ca 65 f9 7358
2611 f936 60 RTS 40 33 ca 65 f9 7360
2612 d703 ed SBC 40 33 ca 65 fb 7366
2613 d706 20 JSR 00 33 ca 27 fb 7370
2614 f937 30 BMI 00 33 ca 27 f9 7376
2615 f939 90 BCC 00 33 ca 27 f9 7378
2616 f93b d0 BNE 00 33 ca 27 f9 7380
2617 f93d 70 BVS 00 33 ca 27 f9 7382
2618 f93f c9 CMP 00 33 ca 27 f9 7384
2619 f941 d0 BNE 00 33 ca 27 f9 7386
2620 f943 60 RTS 00 33 ca 27 f9 7388
2621 d709 c8 INY 00 33 ca 27 fb 7394
2622 d70a a9 LDA 00 33 cb a5 fb 7396
2623 d70c 8d STA 3f 33 cb 25 fb 7398
2624 d70f 20 JSR 3f 33 cb 25 fb 7402
2625 f947 b8 CLV 3f 33 cb 25 f9 7408
2626 f948 38 SEC 3f 33 cb 25 f9 7410
2627 f949 a9 LDA 3f 33 cb 25 f9 7412
2628 f94b 60 RTS 40 33 cb 25 f9 7414
2629 d712 ed SBC 40 33 cb 25 fb 7420
2630 d715 20 JSR 01 33 cb 25 fb 7424
2631 f94c f0 BEQ 01 33 cb 25 f9 7430
2632 f94e 30 BMI 01 33 cb 25 f9 7432
2633 f950 90 BCC 01 33 cb 25 f9 7434
2634 f952 70 BVS 01 33 cb 25 f9 7436
2635 f954 c9 CMP 01 33 cb 25 f9 7438
2636 f956 d0 BNE 01 33 cb 27 f9 7440
2637 f958 60 RTS 01 33 cb 27 f9 7442
2638 d718 c8 INY 01 33 cb 27 fb 7448
2639 d719 a9 LDA 01 33 cc a5 fb 7450
2640 d71b 8d STA 41 33 cc 25 fb 7452
2641 d71e 20 JSR 41 33 cc 25 fb 7456
2642 f95c a9 LDA 41 33 cc 25 f9 7462
2643 f95e 38 SEC 40 33 cc 25 f9 7464
2644 f95f 24 BIT 40 33 cc 25 f9 7466
2645 f961 60 RTS 40 33 cc e5 f9 7469
2646 d721 ed SBC 40 33 cc e5 fb 7475
2647 d724 20 JSR ff 33 cc a4 fb 7479
2648 f962 b0 BCS ff 33 cc a4 f9 7485
2649 f964 f0 BEQ ff 33 cc a4 f9 7487
2650 f966 10 BPL ff 33 cc a4 f9 7489
2651 f968 70 BVS ff 33 cc a4 f9 7491
2652 f96a c9 CMP ff 33 cc a4 f9 7493
2653 f96c d0 BNE ff 33 cc 27 f9 7495
2654 f96e 60 RTS ff 33 cc 27 f9 7497
2655 d727 c8 INY ff 33 cc 27 fb 7503
2656 d728 a9 LDA ff 33 cd a5 fb 7505
2657 d72a 8d STA 00 33 cd 27 fb 7507
2658 d72d 20 JSR 00 33 cd 27 fb 7511
2659 f972 18 CLC 00 33 cd 27 f9 7517
2660 f973 a9 LDA 00 33 cd 26 f9 7519
2661 f975 60 RTS 80 33 cd a4 f9 7521
2662 d730 ed SBC 80 33 cd a4 fb 7527
2663 d733 20 JSR 7f 33 cd 65 fb 7531
2664 f976 90 BCC 7f 33 cd 65 f9 7537
2665 f978 c9 CMP 7f 33 cd 65 f9 7539
2666 f97a d0 BNE 7f 33 cd 67 f9 7541
2667 f97c 60 RTS 7f 33 cd 67 f9 7543
2668 d736 c8 INY 7f 33 cd 67 fb 7549
2669 d737 a9 LDA 7f 33 ce e5 fb 7551
2670 d739 8d STA 7f 33 ce 65 fb 7553
2671 d73c 20 JSR 7f 33 ce 65 fb 7557
2672 f980 38 SEC 7f 33 ce 65 f9 7563
2673 f981 a9 LDA 7f 33 ce 65 f9 7565
2674 f983 60 RTS 81 33 ce e5 f9 7567
2675 d73f ed SBC 81 33 ce e5 fb 7573
2676 d742 20 JSR 02 33 ce 65 fb 7577
2677 f984 50 BVC 02 33 ce 65 f9 7583
2678 f986 90 BCC 02 33 ce 65 f9 7585
2679 f988 c9 CMP 02 33 ce 65 f9 7587
2680 f98a d0 BNE 02 33 ce 67 f9 7589
2681 f98c 60 RTS 02 33 ce 67 f9 7591
2682 d745 c8 INY 02 33 ce 67 fb 7597
2683 d746 a9 LDA 02 33 cf e5 fb 7599
2684 d748 8d STA 40 33 cf 65 fb 7601
2685 d74b 20 JSR 40 33 cf 65 fb 7605
2686 f889 24 BIT 40 33 cf 65 f9 7611
2687 f88b a9 LDA 40 33 cf e5 f9 7614
2688 f88d 60 RTS 40 33 cf 65 f9 7616
2689 d74e aa TAX 40 33 cf 65 fb 7622
2690 d74f ec CPX 40 40 cf 65 fb 7624
2691 d752 20 JSR 40 40 cf 67 fb 7628
2692 f88e 30 BMI 40 40 cf 67 f9 7634
2693 f890 90 BCC 40 40 cf 67 f9 7636
2694 f892 d0 BNE 40 40 cf 67 f9 7638
2695 f894 50 BVC 40 40 cf 67 f9 7640
2696 f896 60 RTS 40 40 cf 67 f9 7642
2697 d755 c8 INY 40 40 cf 67 fb 7648
2698 d756 a9 LDA 40 40 d0 e5 fb 7650
2699 d758 8d STA 3f 40 d0 65 fb 7652
2700 d75b 20 JSR 3f 40 d0 65 fb 7656
2701 f89a b8 CLV 3f 40 d0 65 f9 7662
2702 f89b 60 RTS 3f 40 d0 25 f9 7664
2703 d75e ec CPX 3f 40 d0 25 fb 7670
2704 d761 20 JSR 3f 40 d0 25 fb 7674
2705 f89c f0 BEQ 3f 40 d0 25 f9 7680
2706 f89e 30 BMI 3f 40 d0 25 f9 7682
2707 f8a0 90 BCC 3f 40 d0 25 f9 7684
2708 f8a2 70 BVS 3f 40 d0 25 f9 7686
2709 f8a4 60 RTS 3f 40 d0 25 f9 7688
2710 d764 c8 INY 3f 40 d0 25 fb 7694
2711 d765 a9 LDA 3f 40 d1 a5 fb 7696
2712 d767 8d STA 41 40 d1 25 fb 7698
2713 d76a ec CPX 41 40 d1 25 fb 7702
2714 d76d 20 JSR 41 40 d1 a4 fb 7706
2715 f8a8 f0 BEQ 41 40 d1 a4 f9 7712
2716 f8aa 10 BPL 41 40 d1 a4 f9 7714
2717 f8ac 10 BPL 41 40 d1 a4 f9 7716
2718 f8ae 60 RTS 41 40 d1 a4 f9 7718
2719 d770 c8 INY 41 40 d1 a4 fb 7724
2720 d771 a9 LDA 41 40 d2 a4 fb 7726
2721 d773 8d STA 00 40 d2 26 fb 7728
2722 d776 20 JSR 00 40 d2 26 fb 7732
2723 f8b2 a9 LDA 00 40 d2 26 f9 7738
2724 f8b4 60 RTS 80 40 d2 a4 f9 7740
2725 d779 aa TAX 80 40 d2 a4 fb 7746
2726 d77a ec CPX 80 80 d2 a4 fb 7748
2727 d77d 20 JSR 80 80 d2 a5 fb 7752
2728 f8b5 f0 BEQ 80 80 d2 a5 f9 7758
2729 f8b7 10 BPL 80 80 d2 a5 f9 7760
2730 f8b9 90 BCC 80 80 d2 a5 f9 7762
2731 f8bb 60 RTS 80 80 d2 a5 f9 7764
2732 d780 c8 INY 80 80 d2 a5 fb 7770
2733 d781 a9 LDA 80 80 d3 a5 fb 7772
2734 d783 8d STA 80 80 d3 a5 fb 7774
2735 d786 ec CPX 80 80 d3 a5 fb 7778
2736 d789 20 JSR 80 80 d3 27 fb 7782
2737 f8bf d0 BNE 80 80 d3 27 f9 7788
2738 f8c1 30 BMI 80 80 d3 27 f9 7790
2739 f8c3 90 BCC 80 80 d3 27 f9 7792
2740 f8c5 60 RTS 80 80 d3 27 f9 7794
2741 d78c c8 INY 80 80 d3 27 fb 7800
2742 d78d a9 LDA 80 80 d4 a5 fb 7802
2743 d78f 8d STA 81 80 d4 a5 fb 7804
2744 d792 ec CPX 81 80 d4 a5 fb 7808
2745 d795 20 JSR 81 80 d4 a4 fb 7812
2746 f8c9 b0 BCS 81 80 d4 a4 f9 7818
2747 f8cb f0 BEQ 81 80 d4 a4 f9 7820
2748 f8cd 10 BPL 81 80 d4 a4 f9 7822
2749 f8cf 60 RTS 81 80 d4 a4 f9 7824
2750 d798 c8 INY 81 80 d4 a4 fb 7830
2751 d799 a9 LDA 81 80 d5 a4 fb 7832
2752 d79b 8d STA 7f 80 d5 24 fb 7834
2753 d79e ec CPX 7f 80 d5 24 fb 7838
2754 d7a1 20 JSR 7f 80 d5 25 fb 7842
2755 f8d3 90 BCC 7f 80 d5 25 f9 7848
2756 f8d5 f0 BEQ 7f 80 d5 25 f9 7850
2757 f8d7 30 BMI 7f 80 d5 25 f9 7852
2758 f8d9 60 RTS 7f 80 d5 25 f9 7854
2759 d7a4 c8 INY 7f 80 d5 25 fb 7860
2760 d7a5 98 TYA 7f 80 d6 a5 fb 7862
2761 d7a6 aa TAX d6 80 d6 a5 fb 7864
2762 d7a7 a9 LDA d6 d6 d6 a5 fb 7866
2763 d7a9 8d STA 40 d6 d6 25 fb 7868
2764 d7ac 20 JSR 40 d6 d6 25 fb 7872
2765 f8dd 24 BIT 40 d6 d6 25 f9 7878
2766 f8df a0 LDY 40 d6 d6 e5 f9 7881
2767 f8e1 60 RTS 40 d6 40 65 f9 7883
2768 d7af cc CPY 40 d6 40 65 fb 7889
2769 d7b2 20 JSR 40 d6 40 67 fb 7893
2770 f8e2 30 BMI 40 d6 40 67 f9 7899
2771 f8e4 90 BCC 40 d6 40 67 f9 7901
2772 f8e6 d0 BNE 40 d6 40 67 f9 7903
2773 f8e8 50 BVC 40 d6 40 67 f9 7905
2774 f8ea 60 RTS 40 d6 40 67 f9 7907
2775 d7b5 e8 INX 40 d6 40 67 fb 7913
2776 d7b6 a9 LDA 40 d7 40 e5 fb 7915
2777 d7b8 8d STA 3f d7 40 65 fb 7917
2778 d7bb 20 JSR 3f d7 40 65 fb 7921
2779 f8ee b8 CLV 3f d7 40 65 f9 7927
2780 f8ef 60 RTS 3f d7 40 25 f9 7929
2781 d7be cc CPY 3f d7 40 25 fb 7935
2782 d7c1 20 JSR 3f d7 40 25 fb 7939
2783 f8f0 f0 BEQ 3f d7 40 25 f9 7945
2784 f8f2 30 BMI 3f d7 40 25 f9 7947
2785 f8f4 90 BCC 3f d7 40 25 f9 7949
2786 f8f6 70 BVS 3f d7 40 25 f9 7951
2787 f8f8 60 RTS 3f d7 40 25 f9 7953
2788 d7c4 e8 INX 3f d7 40 25 fb 7959
2789 d7c5 a9 LDA 3f d8 40 a5 fb 7961
2790 d7c7 8d STA 41 d8 40 25 fb 7963
2791 d7ca cc CPY 41 d8 40 25 fb 7967
2792 d7cd 20 JSR 41 d8 40 a4 fb 7971
2793 f8fc f0 BEQ 41 d8 40 a4 f9 7977
2794 f8fe 10 BPL 41 d8 40 a4 f9 7979
2795 f900 10 BPL 41 d8 40 a4 f9 7981
2796 f902 60 RTS 41 d8 40 a4 f9 7983
2797 d7d0 e8 INX 41 d8 40 a4 fb 7989
2798 d7d1 a9 LDA 41 d9 40 a4 fb 7991
2799 d7d3 8d STA 00 d9 40 26 fb 7993
2800 d7d6 20 JSR 00 d9 40 26 fb 7997
2801 f906 a0 LDY 00 d9 40 26 f9 8003
2802 f908 60 RTS 00 d9 80 a4 f9 8005
2803 d7d9 cc CPY 00 d9 80 a4 fb 8011
2804 d7dc 20 JSR 00 d9 80 a5 fb 8015
2805 f909 f0 BEQ 00 d9 80 a5 f9 8021
2806 f90b 10 BPL 00 d9 80 a5 f9 8023
2807 f90d 90 BCC 00 d9 80 a5 f9 8025
2808 f90f 60 RTS 00 d9 80 a5 f9 8027
2809 d7df e8 INX 00 d9 80 a5 fb 8033
2810 d7e0 a9 LDA 00 da 80 a5 fb 8035
2811 d7e2 8d STA 80 da 80 a5 fb 8037
2812 d7e5 cc CPY 80 da 80 a5 fb 8041
2813 d7e8 20 JSR 80 da 80 27 fb 8045
2814 f913 d0 BNE 80 da 80 27 f9 8051
2815 f915 30 BMI 80 da 80 27 f9 8053
2816 f917 90 BCC 80 da 80 27 f9 8055
2817 f919 60 RTS 80 da 80 27 f9 8057
2818 d7eb e8 INX 80 da 80 27 fb 8063
2819 d7ec a9 LDA 80 db 80 a5 fb 8065
2820 d7ee 8d STA 81 db 80 a5 fb 8067
2821 d7f1 cc CPY 81 db 80 a5 fb 8071
2822 d7f4 20 JSR 81 db 80 a4 fb 8075
2823 f91d b0 BCS 81 db 80 a4 f9 8081
2824 f91f f0 BEQ 81 db 80 a4 f9 8083
2825 f921 10 BPL 81 db 80 a4 f9 8085
2826 f923 60 RTS 81 db 80 a4 f9 8087
2827 d7f7 e8 INX 81 db 80 a4 fb 8093
2828 d7f8 a9 LDA 81 dc 80 a4 fb 8095
2829 d7fa 8d STA 7f dc 80 24 fb 8097
2830 d7fd cc CPY 7f dc 80 24 fb 8101
2831 d800 20 JSR 7f dc 80 25 fb 8105
2832 f927 90 BCC 7f dc 80 25 f9 8111
2833 f929 f0 BEQ 7f dc 80 25 f9 8113
2834 f92b 30 BMI 7f dc 80 25 f9 8115
2835 f92d 60 RTS 7f dc 80 25 f9 8117
2836 d803 e8 INX 7f dc 80 25 fb 8123
2837 d804 8a TXA 7f dd 80 a5 fb 8125
2838 d805 a8 TAY dd dd 80 a5 fb 8127
2839 d806 20 JSR dd dd dd a5 fb 8129
2840 f990 a2 LDX dd dd dd a5 f9 8135
2841 f992 a9 LDA dd 55 dd 25 f9 8137
2842 f994 85 STA ff 55 dd a5 f9 8139
2843 f996 ea NOP ff 55 dd a5 f9 8142
2844 f997 24 BIT ff 55 dd a5 f9 8144
2845 f999 38 SEC ff 55 dd e5 f9 8147
2846 f99a a9 LDA ff 55 dd e5 f9 8149
2847 f99c 60 RTS 01 55 dd 65 f9 8151
2848 d809 8d STA 01 55 dd 65 fb 8157
2849 d80c 4e LSR 01 55 dd 65 fb 8161
2850 d80f ad LDA 01 55 dd 67 fb 8167
2851 d812 20 JSR 00 55 dd 67 fb 8171
2852 f99d 90 BCC 00 55 dd 67 f9 8177
2853 f99f d0 BNE 00 55 dd 67 f9 8179
2854 f9a1 30 BMI 00 55 dd 67 f9 8181
2855 f9a3 50 BVC 00 55 dd 67 f9 8183
2856 f9a5 c9 CMP 00 55 dd 67 f9 8185
2857 f9a7 d0 BNE 00 55 dd 67 f9 8187
2858 f9a9 b8 CLV 00 55 dd 67 f9 8189
2859 f9aa a9 LDA 00 55 dd 27 f9 8191
2860 f9ac 60 RTS aa 55 dd a5 f9 8193
2861 d815 c8 INY aa 55 dd a5 fb 8199
2862 d816 8d STA aa 55 de a5 fb 8201
2863 d819 4e LSR aa 55 de a5 fb 8205
2864 d81c ad LDA aa 55 de 24 fb 8211
2865 d81f 20 JSR 55 55 de 24 fb 8215
2866 f9ad b0 BCS 55 55 de 24 f9 8221
2867 f9af f0 BEQ 55 55 de 24 f9 8223
2868 f9b1 30 BMI 55 55 de 24 f9 8225
2869 f9b3 70 BVS 55 55 de 24 f9 8227
2870 f9b5 c9 CMP 55 55 de 24 f9 8229
2871 f9b7 d0 BNE 55 55 de 27 f9 8231
2872 f9b9 60 RTS 55 55 de 27 f9 8233
2873 d822 c8 INY 55 55 de 27 fb 8239
2874 d823 20 JSR 55 55 df a5 fb 8241
2875 f9bd 24 BIT 55 55 df a5 f9 8247
2876 f9bf 38 SEC 55 55 df e5 f9 8250
2877 f9c0 a9 LDA 55 55 df e5 f9 8252
2878 f9c2 60 RTS 80 55 df e5 f9 8254
2879 d826 8d STA 80 55 df e5 fb 8260
2880 d829 0e ASL 80 55 df e5 fb 8264
2881 d82c ad LDA 80 55 df 67 fb 8270
2882 d82f 20 JSR 00 55 df 67 fb 8274
2883 f9c3 90 BCC 00 55 df 67 f9 8280
2884 f9c5 d0 BNE 00 55 df 67 f9 8282
2885 f9c7 30 BMI 00 55 df 67 f9 8284
2886 f9c9 50 BVC 00 55 df 67 f9 8286
2887 f9cb c9 CMP 00 55 df 67 f9 8288
2888 f9cd d0 BNE 00 55 df 67 f9 8290
2889 f9cf b8 CLV 00 55 df 67 f9 8292
2890 f9d0 a9 LDA 00 55 df 27 f9 8294
2891 f9d2 38 SEC 55 55 df 25 f9 8296
2892 f9d3 60 RTS 55 55 df 25 f9 8298
2893 d832 c8 INY 55 55 df 25 fb 8304
2894 d833 8d STA 55 55 e0 a5 fb 8306
2895 d836 0e ASL 55 55 e0 a5 fb 8310
2896 d839 ad LDA 55 55 e0 a4 fb 8316
2897 d83c 20 JSR aa 55 e0 a4 fb 8320
2898 f9d4 b0 BCS aa 55 e0 a4 f9 8326
2899 f9d6 f0 BEQ aa 55 e0 a4 f9 8328
2900 f9d8 10 BPL aa 55 e0 a4 f9 8330
2901 f9da 70 BVS aa 55 e0 a4 f9 8332
2902 f9dc c9 CMP aa 55 e0 a4 f9 8334
2903 f9de d0 BNE aa 55 e0 27 f9 8336
2904 f9e0 60 RTS aa 55 e0 27 f9 8338
2905 d83f c8 INY aa 55 e0 27 fb 8344
2906 d840 20 JSR aa 55 e1 a5 fb 8346
2907 f9e4 24 BIT aa 55 e1 a5 f9 8352
2908 f9e6 38 SEC aa 55 e1 e5 f9 8355
2909 f9e7 a9 LDA aa 55 e1 e5 f9 8357
2910 f9e9 60 RTS 01 55 e1 65 f9 8359
2911 d843 8d STA 01 55 e1 65 fb 8365
2912 d846 6e ROR 01 55 e1 65 fb 8369
2913 d849 ad LDA 01 55 e1 e5 fb 8375
2914 d84c 20 JSR 80 55 e1 e5 fb 8379
2915 f9ea 90 BCC 80 55 e1 e5 f9 8385
2916 f9ec f0 BEQ 80 55 e1 e5 f9 8387
2917 f9ee 10 BPL 80 55 e1 e5 f9 8389
2918 f9f0 50 BVC 80 55 e1 e5 f9 8391
2919 f9f2 c9 CMP 80 55 e1 e5 f9 8393
2920 f9f4 d0 BNE 80 55 e1 67 f9 8395
2921 f9f6 b8 CLV 80 55 e1 67 f9 8397
2922 f9f7 18 CLC 80 55 e1 27 f9 8399
2923 f9f8 a9 LDA 80 55 e1 26 f9 8401
2924 f9fa 60 RTS 55 55 e1 24 f9 8403
2925 d84f c8 INY 55 55 e1 24 fb 8409
2926 d850 8d STA 55 55 e2 a4 fb 8411
2927 d853 6e ROR 55 55 e2 a4 fb 8415
2928 d856 ad LDA 55 55 e2 25 fb 8421
2929 d859 20 JSR 2a 55 e2 25 fb 8425
2930 f9fb 90 BCC 2a 55 e2 25 f9 8431
2931 f9fd f0 BEQ 2a 55 e2 25 f9 8433
2932 f9ff 30 BMI 2a 55 e2 25 f9 8435
2933 fa01 70 BVS 2a 55 e2 25 f9 8437
2934 fa03 c9 CMP 2a 55 e2 25 f9 8439
2935 fa05 d0 BNE 2a 55 e2 27 f9 8441
2936 fa07 60 RTS 2a 55 e2 27 f9 8443
2937 d85c c8 INY 2a 55 e2 27 fb 8449
2938 d85d 20 JSR 2a 55 e3 a5 fb 8451
2939 fa0a 24 BIT 2a 55 e3 a5 f9 8457
2940 fa0c 38 SEC 2a 55 e3 e5 f9 8460
2941 fa0d a9 LDA 2a 55 e3 e5 f9 8462
2942 fa0f 60 RTS 80 55 e3 e5 f9 8464
2943 d860 8d STA 80 55 e3 e5 fb 8470
2944 d863 2e ROL 80 55 e3 e5 fb 8474
2945 d866 ad LDA 80 55 e3 65 fb 8480
2946 d869 20 JSR 01 55 e3 65 fb 8484
2947 fa10 90 BCC 01 55 e3 65 f9 8490
2948 fa12 f0 BEQ 01 55 e3 65 f9 8492
2949 fa14 30 BMI 01 55 e3 65 f9 8494
2950 fa16 50 BVC 01 55 e3 65 f9 8496
2951 fa18 c9 CMP 01 55 e3 65 f9 8498
2952 fa1a d0 BNE 01 55 e3 67 f9 8500
2953 fa1c b8 CLV 01 55 e3 67 f9 8502
2954 fa1d 18 CLC 01 55 e3 27 f9 8504
2955 fa1e a9 LDA 01 55 e3 26 f9 8506
2956 fa20 60 RTS 55 55 e3 24 f9 8508
2957 d86c c8 INY 55 55 e3 24 fb 8514
2958 d86d 8d STA 55 55 e4 a4 fb 8516
2959 d870 2e ROL 55 55 e4 a4 fb 8520
2960 d873 ad LDA 55 55 e4 a4 fb 8526
2961 d876 20 JSR aa 55 e4 a4 fb 8530
2962 fa21 b0 BCS aa 55 e4 a4 f9 8536
2963 fa23 f0 BEQ aa 55 e4 a4 f9 8538
2964 fa25 10 BPL aa 55 e4 a4 f9 8540
2965 fa27 70 BVS aa 55 e4 a4 f9 8542
2966 fa29 c9 CMP aa 55 e4 a4 f9 8544
2967 fa2b d0 BNE aa 55 e4 27 f9 8546
2968 fa2d 60 RTS aa 55 e4 27 f9 8548
2969 d879 a9 LDA aa 55 e4 27 fb 8554
2970 d87b 8d STA ff 55 e4 a5 fb 8556
2971 d87e 85 STA ff 55 e4 a5 fb 8560
2972 d880 24 BIT ff 55 e4 a5 fb 8563
2973 d882 38 SEC ff 55 e4 e5 fb 8566
2974 d883 ee INC ff 55 e4 e5 fb 8568
2975 d886 d0 BNE ff 55 e4 67 fb 8574
2976 d888 30 BMI ff 55 e4 67 fb 8576
2977 d88a 50 BVC ff 55 e4 67 fb 8578
2978 d88c 90 BCC ff 55 e4 67 fb 8580
2979 d88e ad LDA ff 55 e4 67 fb 8582
2980 d891 c9 CMP 00 55 e4 67 fb 8586
2981 d893 f0 BEQ 00 55 e4 67 fb 8588
2982 d899 a9 LDA 00 55 e4 67 fb 8591
2983 d89b 8d STA 7f 55 e4 65 fb 8593
2984 d89e b8 CLV 7f 55 e4 65 fb 8597
2985 d89f 18 CLC 7f 55 e4 25 fb 8599
2986 d8a0 ee INC 7f 55 e4 24 fb 8601
2987 d8a3 f0 BEQ 7f 55 e4 a4 fb 8607
2988 d8a5 10 BPL 7f 55 e4 a4 fb 8609
2989 d8a7 70 BVS 7f 55 e4 a4 fb 8611
2990 d8a9 b0 BCS 7f 55 e4 a4 fb 8613
2991 d8ab ad LDA 7f 55 e4 a4 fb 8615
2992 d8ae c9 CMP 80 55 e4 a4 fb 8619
2993 d8b0 f0 BEQ 80 55 e4 27 fb 8621
2994 d8b6 a9 LDA 80 55 e4 27 fb 8624
2995 d8b8 8d STA 00 55 e4 27 fb 8626
2996 d8bb 24 BIT 00 55 e4 27 fb 8630
2997 d8bd 38 SEC 00 55 e4 e7 fb 8633
2998 d8be ce DEC 00 55 e4 e7 fb 8635
2999 d8c1 f0 BEQ 00 55 e4 e5 fb 8641
3000 d8c3 10 BPL 00 55 e4 e5 fb 8643
3001 d8c5 50 BVC 00 55 e4 e5 fb 8645
3002 d8c7 90 BCC 00 55 e4 e5 fb 8647
3003 d8c9 ad LDA 00 55 e4 e5 fb 8649
3004 d8cc c9 CMP ff 55 e4 e5 fb 8653
3005 d8ce f0 BEQ ff 55 e4 67 fb 8655
3006 d8d4 a9 LDA ff 55 e4 67 fb 8658
3007 d8d6 8d STA 80 55 e4 e5 fb 8660
3008 d8d9 b8 CLV 80 55 e4 e5 fb 8664
3009 d8da 18 CLC 80 55 e4 a5 fb 8666
3010 d8db ce DEC 80 55 e4 a4 fb 8668
3011 d8de f0 BEQ 80 55 e4 24 fb 8674
3012 d8e0 30 BMI 80 55 e4 24 fb 8676
3013 d8e2 70 BVS 80 55 e4 24 fb 8678
3014 d8e4 b0 BCS 80 55 e4 24 fb 8680
3015 d8e6 ad LDA 80 55 e4 24 fb 8682
3016 d8e9 c9 CMP 7f 55 e4 24 fb 8686
3017 d8eb f0 BEQ 7f 55 e4 27 fb 8688
3018 d8f1 a9 LDA 7f 55 e4 27 fb 8691
3019 d8f3 8d STA 01 55 e4 25 fb 8693
3020 d8f6 ce DEC 01 55 e4 25 fb 8697
3021 d8f9 f0 BEQ 01 55 e4 27 fb 8703
3022 d8ff 60 RTS 01 55 e4 27 fb 8706
3023 c618 20 JSR 01 55 e4 27 fd 8712
3024 d900 a9 LDA 01 55 e4 27 fb 8718
3025 d902 85 STA a3 55 e4 a5 fb 8720
3026 d904 a9 LDA a3 55 e4 a5 fb 8723
3027 d906 8d STA 89 55 e4 a5 fb 8725
3028 d909 a9 LDA 89 55 e4 a5 fb 8729
3029 d90b 8d STA 12 55 e4 25 fb 8731
3030 d90e a9 LDA 12 55 e4 25 fb 8735
3031 d910 85 STA ff 55 e4 a5 fb 8737
3032 d912 a2 LDX ff 55 e4 a5 fb 8740
3033 d914 a9 LDA ff 65 e4 25 fb 8742
3034 d916 85 STA 00 65 e4 27 fb 8744
3035 d918 a9 LDA 00 65 e4 27 fb 8747
3036 d91a 85 STA 03 65 e4 25 fb 8749
3037 d91c a0 LDY 03 65 e4 25 fb 8752
3038 d91e 38 SEC 03 65 00 27 fb 8754
3039 d91f a9 LDA 03 65 00 27 fb 8756
3040 d921 b8 CLV 00 65 00 27 fb 8758
3041 d922 b1 LDA 00 65 00 27 fb 8760
3042 d924 f0 BEQ 89 65 00 a5 fb 8765
3043 d926 90 BCC 89 65 00 a5 fb 8767
3044 d928 70 BVS 89 65 00 a5 fb 8769
3045 d92a c9 CMP 89 65 00 a5 fb 8771
3046 d92c d0 BNE 89 65 00 27 fb 8773
3047 d92e e0 CPX 89 65 00 27 fb 8775
3048 d930 f0 BEQ 89 65 00 27 fb 8777
3049 d936 a9 LDA 89 65 00 27 fb 8780
3050 d938 85 STA ff 65 00 a5 fb 8782
3051 d93a 85 STA ff 65 00 a5 fb 8785
3052 d93c 24 BIT ff 65 00 a5 fb 8788
3053 d93e a0 LDY ff 65 00 e5 fb 8791
3054 d940 b1 LDA ff 65 34 65 fb 8793
3055 d942 c9 CMP a3 65 34 e5 fb 8799
3056 d944 d0 BNE a3 65 34 67 fb 8801
3057 d946 b0 BCS a3 65 34 67 fb 8803
3058 d94c a5 LDA a3 65 34 67 fb 8806
3059 d94e 48 PHA 00 65 34 67 fb 8809
3060 d94f a9 LDA 00 65 34 67 fa 8812
3061 d951 85 STA 46 65 34 65 fa 8814
3062 d953 a9 LDA 46 65 34 65 fa 8817
3063 d955 85 STA 01 65 34 65 fa 8819
3064 d957 a0 LDY 01 65 34 65 fa 8822
3065 d959 b1 LDA 01 65 ff e5 fa 8824
3066 d95b c9 CMP 12 65 ff 65 fa 8830
3067 d95d f0 BEQ 12 65 ff 67 fa 8832
3068 d963 68 PLA 12 65 ff 67 fa 8835
3069 d964 85 STA 00 65 ff 67 fb 8839
3070 d966 a2 LDX 00 65 ff 67 fb 8842
3071 d968 a9 LDA 00 ed ff e5 fb 8844
3072 d96a 85 STA 00 ed ff 67 fb 8846
3073 d96c a9 LDA 00 ed ff 67 fb 8849
3074 d96e 85 STA 04 ed ff 65 fb 8851
3075 d970 a0 LDY 04 ed ff 65 fb 8854
3076 d972 18 CLC 04 ed 00 67 fb 8856
3077 d973 a9 LDA 04 ed 00 66 fb 8858
3078 d975 85 STA ff ed 00 e4 fb 8860
3079 d977 24 BIT ff ed 00 e4 fb 8863
3080 d979 a9 LDA ff ed 00 e4 fb 8866
3081 d97b 8d STA aa ed 00 e4 fb 8868
3082 d97e a9 LDA aa ed 00 e4 fb 8872
3083 d980 11 ORA 55 ed 00 64 fb 8874
3084 d982 b0 BCS ff ed 00 e4 fb 8879
3085 d984 10 BPL ff ed 00 e4 fb 8881
3086 d986 c9 CMP ff ed 00 e4 fb 8883
3087 d988 d0 BNE ff ed 00 67 fb 8885
3088 d98a 70 BVS ff ed 00 67 fb 8887
3089 d98e e8 INX ff ed 00 67 fb 8890
3090 d98f 38 SEC ff ee 00 e5 fb 8892
3091 d990 b8 CLV ff ee 00 e5 fb 8894
3092 d991 a9 LDA ff ee 00 a5 fb 8896
3093 d993 11 ORA 00 ee 00 27 fb 8898
3094 d995 f0 BEQ aa ee 00 a5 fb 8903
3095 d997 70 BVS aa ee 00 a5 fb 8905
3096 d999 90 BCC aa ee 00 a5 fb 8907
3097 d99b 30 BMI aa ee 00 a5 fb 8909
3098 d99f e8 INX aa ee 00 a5 fb 8912
3099 d9a0 18 CLC aa ef 00 a5 fb 8914
3100 d9a1 24 BIT aa ef 00 a4 fb 8916
3101 d9a3 a9 LDA aa ef 00 e4 fb 8919
3102 d9a5 31 AND 55 ef 00 64 fb 8921
3103 d9a7 d0 BNE 00 ef 00 66 fb 8926
3104 d9a9 50 BVC 00 ef 00 66 fb 8928
3105 d9ab b0 BCS 00 ef 00 66 fb 8930
3106 d9ad 10 BPL 00 ef 00 66 fb 8932
3107 d9b1 e8 INX 00 ef 00 66 fb 8935
3108 d9b2 38 SEC 00 f0 00 e4 fb 8937
3109 d9b3 b8 CLV 00 f0 00 e5 fb 8939
3110 d9b4 a9 LDA 00 f0 00 a5 fb 8941
3111 d9b6 8d STA ef f0 00 a5 fb 8943
3112 d9b9 a9 LDA ef f0 00 a5 fb 8947
3113 d9bb 31 AND f8 f0 00 a5 fb 8949
3114 d9bd 90 BCC e8 f0 00 a5 fb 8954
3115 d9bf 10 BPL e8 f0 00 a5 fb 8956
3116 d9c1 c9 CMP e8 f0 00 a5 fb 8958
3117 d9c3 d0 BNE e8 f0 00 27 fb 8960
3118 d9c5 50 BVC e8 f0 00 27 fb 8962
3119 d9c9 e8 INX e8 f0 00 27 fb 8965
3120 d9ca 18 CLC e8 f1 00 a5 fb 8967
3121 d9cb 24 BIT e8 f1 00 a4 fb 8969
3122 d9cd a9 LDA e8 f1 00 e4 fb 8972
3123 d9cf 8d STA aa f1 00 e4 fb 8974
3124 d9d2 a9 LDA aa f1 00 e4 fb 8978
3125 d9d4 51 EOR 5f f1 00 64 fb 8980
3126 d9d6 b0 BCS f5 f1 00 e4 fb 8985
3127 d9d8 10 BPL f5 f1 00 e4 fb 8987
3128 d9da c9 CMP f5 f1 00 e4 fb 8989
3129 d9dc d0 BNE f5 f1 00 67 fb 8991
3130 d9de 70 BVS f5 f1 00 67 fb 8993
3131 d9e2 e8 INX f5 f1 00 67 fb 8996
3132 d9e3 38 SEC f5 f2 00 e5 fb 8998
3133 d9e4 b8 CLV f5 f2 00 e5 fb 9000
3134 d9e5 a9 LDA f5 f2 00 a5 fb 9002
3135 d9e7 8d STA 70 f2 00 25 fb 9004
3136 d9ea 51 EOR 70 f2 00 25 fb 9008
3137 d9ec d0 BNE 00 f2 00 27 fb 9013
3138 d9ee 70 BVS 00 f2 00 27 fb 9015
3139 d9f0 90 BCC 00 f2 00 27 fb 9017
3140 d9f2 10 BPL 00 f2 00 27 fb 9019
3141 d9f6 e8 INX 00 f2 00 27 fb 9022
3142 d9f7 18 CLC 00 f3 00 a5 fb 9024
3143 d9f8 24 BIT 00 f3 00 a4 fb 9026
3144 d9fa a9 LDA 00 f3 00 e6 fb 9029
3145 d9fc 8d STA 69 f3 00 64 fb 9031
3146 d9ff a9 LDA 69 f3 00 64 fb 9035
3147 da01 71 ADC 00 f3 00 66 fb 9037
3148 da03 30 BMI 69 f3 00 24 fb 9042
3149 da05 b0 BCS 69 f3 00 24 fb 9044
3150 da07 c9 CMP 69 f3 00 24 fb 9046
3151 da09 d0 BNE 69 f3 00 27 fb 9048
3152 da0b 50 BVC 69 f3 00 27 fb 9050
3153 da0f e8 INX 69 f3 00 27 fb 9053
3154 da10 38 SEC 69 f4 00 a5 fb 9055
3155 da11 24 BIT 69 f4 00 a5 fb 9057
3156 da13 a9 LDA 69 f4 00 e5 fb 9060
3157 da15 71 ADC 00 f4 00 67 fb 9062
3158 da17 30 BMI 6a f4 00 24 fb 9067
3159 da19 b0 BCS 6a f4 00 24 fb 9069
3160 da1b c9 CMP 6a f4 00 24 fb 9071
3161 da1d d0 BNE 6a f4 00 27 fb 9073
3162 da1f 50 BVC 6a f4 00 27 fb 9075
3163 da23 e8 INX 6a f4 00 27 fb 9078
3164 da24 38 SEC 6a f5 00 a5 fb 9080
3165 da25 b8 CLV 6a f5 00 a5 fb 9082
3166 da26 a9 LDA 6a f5 00 a5 fb 9084
3167 da28 8d STA 7f f5 00 25 fb 9086
3168 da2b 71 ADC 7f f5 00 25 fb 9090
3169 da2d 10 BPL ff f5 00 e4 fb 9095
3170 da2f b0 BCS ff f5 00 e4 fb 9097
3171 da31 c9 CMP ff f5 00 e4 fb 9099
3172 da33 d0 BNE ff f5 00 67 fb 9101
3173 da35 70 BVS ff f5 00 67 fb 9103
3174 da39 e8 INX ff f5 00 67 fb 9106
3175 da3a 18 CLC ff f6 00 e5 fb 9108
3176 da3b 24 BIT ff f6 00 e4 fb 9110
3177 da3d a9 LDA ff f6 00 e4 fb 9113
3178 da3f 8d STA 80 f6 00 e4 fb 9115
3179 da42 a9 LDA 80 f6 00 e4 fb 9119
3180 da44 71 ADC 7f f6 00 64 fb 9121
3181 da46 10 BPL ff f6 00 a4 fb 9126
3182 da48 b0 BCS ff f6 00 a4 fb 9128
3183 da4a c9 CMP ff f6 00 a4 fb 9130
3184 da4c d0 BNE ff f6 00 27 fb 9132
3185 da4e 50 BVC ff f6 00 27 fb 9134
3186 da52 e8 INX ff f6 00 27 fb 9137
3187 da53 38 SEC ff f7 00 a5 fb 9139
3188 da54 b8 CLV ff f7 00 a5 fb 9141
3189 da55 a9 LDA ff f7 00 a5 fb 9143
3190 da57 8d STA 80 f7 00 a5 fb 9145
3191 da5a a9 LDA 80 f7 00 a5 fb 9149
3192 da5c 71 ADC 7f f7 00 25 fb 9151
3193 da5e d0 BNE 00 f7 00 27 fb 9156
3194 da60 30 BMI 00 f7 00 27 fb 9158
3195 da62 70 BVS 00 f7 00 27 fb 9160
3196 da64 b0 BCS 00 f7 00 27 fb 9162
3197 da68 e8 INX 00 f7 00 27 fb 9165
3198 da69 24 BIT 00 f8 00 a5 fb 9167
3199 da6b a9 LDA 00 f8 00 e7 fb 9170
3200 da6d 8d STA 40 f8 00 65 fb 9172
3201 da70 d1 CMP 40 f8 00 65 fb 9176
3202 da72 30 BMI 40 f8 00 67 fb 9181
3203 da74 90 BCC 40 f8 00 67 fb 9183
3204 da76 d0 BNE 40 f8 00 67 fb 9185
3205 da78 70 BVS 40 f8 00 67 fb 9187
3206 da7c e8 INX 40 f8 00 67 fb 9190
3207 da7d b8 CLV 40 f9 00 e5 fb 9192
3208 da7e ce DEC 40 f9 00 a5 fb 9194
3209 da81 d1 CMP 40 f9 00 25 fb 9200
3210 da83 f0 BEQ 40 f9 00 25 fb 9205
3211 da85 30 BMI 40 f9 00 25 fb 9207
3212 da87 90 BCC 40 f9 00 25 fb 9209
3213 da89 50 BVC 40 f9 00 25 fb 9211
3214 da8d e8 INX 40 f9 00 25 fb 9214
3215 da8e ee INC 40 fa 00 a5 fb 9216
3216 da91 ee INC 40 fa 00 25 fb 9222
3217 da94 d1 CMP 40 fa 00 25 fb 9228
3218 da96 f0 BEQ 40 fa 00 a4 fb 9233
3219 da98 30 BMI 40 fa 00 a4 fb 9235
3220 da9c e8 INX 40 fa 00 a4 fb 9238
3221 da9d a9 LDA 40 fb 00 a4 fb 9240
3222 da9f 8d STA 00 fb 00 26 fb 9242
3223 daa2 a9 LDA 00 fb 00 26 fb 9246
3224 daa4 d1 CMP 80 fb 00 a4 fb 9248
3225 daa6 f0 BEQ 80 fb 00 a5 fb 9253
3226 daa8 10 BPL 80 fb 00 a5 fb 9255
3227 daaa b0 BCS 80 fb 00 a5 fb 9257
3228 daae e8 INX 80 fb 00 a5 fb 9260
3229 daaf a0 LDY 80 fc 00 a5 fb 9262
3230 dab1 8c STY 80 fc 80 a5 fb 9264
3231 dab4 a0 LDY 80 fc 80 a5 fb 9268
3232 dab6 d1 CMP 80 fc 00 27 fb 9270
3233 dab8 d0 BNE 80 fc 00 27 fb 9275
3234 daba 30 BMI 80 fc 00 27 fb 9277
3235 dabc b0 BCS 80 fc 00 27 fb 9279
3236 dac0 e8 INX 80 fc 00 27 fb 9282
3237 dac1 ee INC 80 fd 00 a5 fb 9284
3238 dac4 d1 CMP 80 fd 00 a5 fb 9290
3239 dac6 b0 BCS 80 fd 00 a4 fb 9295
3240 dac8 f0 BEQ 80 fd 00 a4 fb 9297
3241 daca 30 BMI 80 fd 00 a4 fb 9299
3242 dace e8 INX 80 fd 00 a4 fb 9302
3243 dacf ce DEC 80 fe 00 a4 fb 9304
3244 dad2 ce DEC 80 fe 00 a4 fb 9310
3245 dad5 d1 CMP 80 fe 00 24 fb 9316
3246 dad7 90 BCC 80 fe 00 25 fb 9321
3247 dad9 f0 BEQ 80 fe 00 25 fb 9323
3248 dadb 10 BPL 80 fe 00 25 fb 9325
3249 dadf 60 RTS 80 fe 00 25 fb 9328
3250 c61b a5 LDA 80 fe 00 25 fd 9334
3251 c61d 85 STA 00 fe 00 27 fd 9337
3252 c61f a9 LDA 00 fe 00 27 fd 9340
3253 c621 85 STA 00 fe 00 27 fd 9342
3254 c623 20 JSR 00 fe 00 27 fd 9345
3255 dae0 a9 LDA 00 fe 00 27 fb 9351
3256 dae2 85 STA 00 fe 00 27 fb 9353
3257 dae4 a9 LDA 00 fe 00 27 fb 9356
3258 dae6 85 STA 04 fe 00 25 fb 9358
3259 dae8 a0 LDY 04 fe 00 25 fb 9361
3260 daea a2 LDX 04 fe 00 27 fb 9363
3261 daec 24 BIT 04 01 00 25 fb 9365
3262 daee a9 LDA 04 01 00 e5 fb 9368
3263 daf0 8d STA 40 01 00 65 fb 9370
3264 daf3 38 SEC 40 01 00 65 fb 9374
3265 daf4 f1 SBC 40 01 00 65 fb 9376
3266 daf6 30 BMI 00 01 00 27 fb 9381
3267 daf8 90 BCC 00 01 00 27 fb 9383
3268 dafa d0 BNE 00 01 00 27 fb 9385
3269 dafc 70 BVS 00 01 00 27 fb 9387
3270 dafe c9 CMP 00 01 00 27 fb 9389
3271 db00 f0 BEQ 00 01 00 27 fb 9391
3272 db04 e8 INX 00 01 00 27 fb 9394
3273 db05 b8 CLV 00 02 00 25 fb 9396
3274 db06 38 SEC 00 02 00 25 fb 9398
3275 db07 a9 LDA 00 02 00 25 fb 9400
3276 db09 ce DEC 40 02 00 25 fb 9402
3277 db0c f1 SBC 40 02 00 25 fb 9408
3278 db0e f0 BEQ 01 02 00 25 fb 9413
3279 db10 30 BMI 01 02 00 25 fb 9415
3280 db12 90 BCC 01 02 00 25 fb 9417
3281 db14 70 BVS 01 02 00 25 fb 9419
3282 db16 c9 CMP 01 02 00 25 fb 9421
3283 db18 f0 BEQ 01 02 00 27 fb 9423
3284 db1c e8 INX 01 02 00 27 fb 9426
3285 db1d a9 LDA 01 03 00 25 fb 9428
3286 db1f 38 SEC 40 03 00 25 fb 9430
3287 db20 24 BIT 40 03 00 25 fb 9432
3288 db22 ee INC 40 03 00 e5 fb 9435
3289 db25 ee INC 40 03 00 65 fb 9441
3290 db28 f1 SBC 40 03 00 65 fb 9447
3291 db2a b0 BCS ff 03 00 a4 fb 9452
3292 db2c f0 BEQ ff 03 00 a4 fb 9454
3293 db2e 10 BPL ff 03 00 a4 fb 9456
3294 db30 70 BVS ff 03 00 a4 fb 9458
3295 db32 c9 CMP ff 03 00 a4 fb 9460
3296 db34 f0 BEQ ff 03 00 27 fb 9462
3297 db38 e8 INX ff 03 00 27 fb 9465
3298 db39 18 CLC ff 04 00 25 fb 9467
3299 db3a a9 LDA ff 04 00 24 fb 9469
3300 db3c 8d STA 00 04 00 26 fb 9471
3301 db3f a9 LDA 00 04 00 26 fb 9475
3302 db41 f1 SBC 80 04 00 a4 fb 9477
3303 db43 90 BCC 7f 04 00 65 fb 9482
3304 db45 c9 CMP 7f 04 00 65 fb 9484
3305 db47 f0 BEQ 7f 04 00 67 fb 9486
3306 db4b e8 INX 7f 04 00 67 fb 9489
3307 db4c 38 SEC 7f 05 00 65 fb 9491
3308 db4d a9 LDA 7f 05 00 65 fb 9493
3309 db4f 8d STA 7f 05 00 65 fb 9495
3310 db52 a9 LDA 7f 05 00 65 fb 9499
3311 db54 f1 SBC 81 05 00 e5 fb 9501
3312 db56 50 BVC 02 05 00 65 fb 9506
3313 db58 90 BCC 02 05 00 65 fb 9508
3314 db5a c9 CMP 02 05 00 65 fb 9510
3315 db5c f0 BEQ 02 05 00 67 fb 9512
3316 db60 e8 INX 02 05 00 67 fb 9515
3317 db61 a9 LDA 02 06 00 65 fb 9517
3318 db63 a9 LDA 00 06 00 67 fb 9519
3319 db65 91 STA 87 06 00 e5 fb 9521
3320 db67 ad LDA 87 06 00 e5 fb 9527
3321 db6a c9 CMP 87 06 00 e5 fb 9531
3322 db6c f0 BEQ 87 06 00 67 fb 9533
3323 db70 e8 INX 87 06 00 67 fb 9536
3324 db71 a9 LDA 87 07 00 65 fb 9538
3325 db73 8d STA 7e 07 00 65 fb 9540
3326 db76 a9 LDA 7e 07 00 65 fb 9544
3327 db78 8d STA db 07 00 e5 fb 9546
3328 db7b 6c JMP db 07 00 e5 fb 9550
3329 db7e a9 LDA db 07 00 e5 fb 9555
3330 db80 8d STA 00 07 00 67 fb 9557
3331 db83 a9 LDA 00 07 00 67 fb 9561
3332 db85 8d STA 01 07 00 65 fb 9563
3333 db88 a9 LDA 01 07 00 65 fb 9567
3334 db8a 8d STA 03 07 00 65 fb 9569
3335 db8d a9 LDA 03 07 00 65 fb 9573
3336 db8f 8d STA a9 07 00 e5 fb 9575
3337 db92 a9 LDA a9 07 00 e5 fb 9579
3338 db94 8d STA 55 07 00 65 fb 9581
3339 db97 a9 LDA 55 07 00 65 fb 9585
3340 db99 8d STA 60 07 00 65 fb 9587
3341 db9c a9 LDA 60 07 00 65 fb 9591
3342 db9e 8d STA a9 07 00 e5 fb 9593
3343 dba1 a9 LDA a9 07 00 e5 fb 9597
3344 dba3 8d STA aa 07 00 e5 fb 9599
3345 dba6 a9 LDA aa 07 00 e5 fb 9603
3346 dba8 8d STA 60 07 00 65 fb 9605
3347 dbab 20 JSR 60 07 00 65 fb 9609
3348 dbb5 6c JMP 60 07 00 65 f9 9615
3349 0300 a9 LDA 60 07 00 65 f9 9620
3350 0302 60 RTS aa 07 00 e5 f9 9622
3351 dbae c9 CMP aa 07 00 e5 fb 9628
3352 dbb0 f0 BEQ aa 07 00 67 fb 9630
3353 dbb4 60 RTS aa 07 00 67 fb 9633
3354 c626 20 JSR aa 07 00 67 fd 9639
3355 df4a a9 LDA aa 07 00 67 fb 9645
3356 df4c 8d STA 89 07 00 e5 fb 9647
3357 df4f a9 LDA 89 07 00 e5 fb 9651
3358 df51 85 STA a3 07 00 e5 fb 9653
3359 df53 a9 LDA a3 07 00 e5 fb 9656
3360 df55 8d STA 12 07 00 65 fb 9658
3361 df58 a2 LDX 12 07 00 65 fb 9662
3362 df5a a0 LDY 12 65 00 65 fb 9664
3363 df5c 38 SEC 12 65 00 67 fb 9666
3364 df5d a9 LDA 12 65 00 67 fb 9668
3365 df5f b8 CLV 00 65 00 67 fb 9670
3366 df60 b9 LDA 00 65 00 27 fb 9672
3367 df63 f0 BEQ 89 65 00 a5 fb 9676
3368 df65 90 BCC 89 65 00 a5 fb 9678
3369 df67 70 BVS 89 65 00 a5 fb 9680
3370 df69 c9 CMP 89 65 00 a5 fb 9682
3371 df6b d0 BNE 89 65 00 27 fb 9684
3372 df6d e0 CPX 89 65 00 27 fb 9686
3373 df6f f0 BEQ 89 65 00 27 fb 9688
3374 df75 a9 LDA 89 65 00 27 fb 9691
3375 df77 85 STA ff 65 00 a5 fb 9693
3376 df79 24 BIT ff 65 00 a5 fb 9696
3377 df7b a0 LDY ff 65 00 e5 fb 9699
3378 df7d b9 LDA ff 65 34 65 fb 9701
3379 df80 c9 CMP a3 65 34 e5 fb 9706
3380 df82 d0 BNE a3 65 34 67 fb 9708
3381 df84 b0 BCS a3 65 34 67 fb 9710
3382 df8a a9 LDA a3 65 34 67 fb 9713
3383 df8c 85 STA 46 65 34 65 fb 9715
3384 df8e a0 LDY 46 65 34 65 fb 9718
3385 df90 b9 LDA 46 65 ff e5 fb 9720
3386 df93 c9 CMP 12 65 ff 65 fb 9725
3387 df95 f0 BEQ 12 65 ff 67 fb 9727
3388 df9b a2 LDX 12 65 ff 67 fb 9730
3389 df9d 18 CLC 12 39 ff 65 fb 9732
3390 df9e a9 LDA 12 39 ff 64 fb 9734
3391 dfa0 85 STA ff 39 ff e4 fb 9736
3392 dfa2 24 BIT ff 39 ff e4 fb 9739
3393 dfa4 a9 LDA ff 39 ff e4 fb 9742
3394 dfa6 8d STA aa 39 ff e4 fb 9744
3395 dfa9 a9 LDA aa 39 ff e4 fb 9748
3396 dfab a0 LDY 55 39 ff 64 fb 9750
3397 dfad 19 ORA 55 39 00 66 fb 9752
3398 dfb0 b0 BCS ff 39 00 e4 fb 9756
3399 dfb2 10 BPL ff 39 00 e4 fb 9758
3400 dfb4 c9 CMP ff 39 00 e4 fb 9760
3401 dfb6 d0 BNE ff 39 00 67 fb 9762
3402 dfb8 70 BVS ff 39 00 67 fb 9764
3403 dfbc e8 INX ff 39 00 67 fb 9767
3404 dfbd 38 SEC ff 3a 00 65 fb 9769
3405 dfbe b8 CLV ff 3a 00 65 fb 9771
3406 dfbf a9 LDA ff 3a 00 25 fb 9773
3407 dfc1 19 ORA 00 3a 00 27 fb 9775
3408 dfc4 f0 BEQ aa 3a 00 a5 fb 9779
3409 dfc6 70 BVS aa 3a 00 a5 fb 9781
3410 dfc8 90 BCC aa 3a 00 a5 fb 9783
3411 dfca 30 BMI aa 3a 00 a5 fb 9785
3412 dfce e8 INX aa 3a 00 a5 fb 9788
3413 dfcf 18 CLC aa 3b 00 25 fb 9790
3414 dfd0 24 BIT aa 3b 00 24 fb 9792
3415 dfd2 a9 LDA aa 3b 00 e4 fb 9795
3416 dfd4 39 AND 55 3b 00 64 fb 9797
3417 dfd7 d0 BNE 00 3b 00 66 fb 9801
3418 dfd9 50 BVC 00 3b 00 66 fb 9803
3419 dfdb b0 BCS 00 3b 00 66 fb 9805
3420 dfdd 10 BPL 00 3b 00 66 fb 9807
3421 dfe1 e8 INX 00 3b 00 66 fb 9810
3422 dfe2 38 SEC 00 3c 00 64 fb 9812
3423 dfe3 b8 CLV 00 3c 00 65 fb 9814
3424 dfe4 a9 LDA 00 3c 00 25 fb 9816
3425 dfe6 8d STA ef 3c 00 a5 fb 9818
3426 dfe9 a9 LDA ef 3c 00 a5 fb 9822
3427 dfeb 39 AND f8 3c 00 a5 fb 9824
3428 dfee 90 BCC e8 3c 00 a5 fb 9828
3429 dff0 10 BPL e8 3c 00 a5 fb 9830
3430 dff2 c9 CMP e8 3c 00 a5 fb 9832
3431 dff4 d0 BNE e8 3c 00 27 fb 9834
3432 dff6 50 BVC e8 3c 00 27 fb 9836
3433 dffa e8 INX e8 3c 00 27 fb 9839
3434 dffb 18 CLC e8 3d 00 25 fb 9841
3435 dffc 24 BIT e8 3d 00 24 fb 9843
3436 dffe a9 LDA e8 3d 00 e4 fb 9846
3437 e000 8d STA aa 3d 00 e4 fb 9848
3438 e003 a9 LDA aa 3d 00 e4 fb 9852
3439 e005 59 EOR 5f 3d 00 64 fb 9854
3440 e008 b0 BCS f5 3d 00 e4 fb 9858
3441 e00a 10 BPL f5 3d 00 e4 fb 9860
3442 e00c c9 CMP f5 3d 00 e4 fb 9862
3443 e00e d0 BNE f5 3d 00 67 fb 9864
3444 e010 70 BVS f5 3d 00 67 fb 9866
3445 e014 e8 INX f5 3d 00 67 fb 9869
3446 e015 38 SEC f5 3e 00 65 fb 9871
3447 e016 b8 CLV f5 3e 00 65 fb 9873
3448 e017 a9 LDA f5 3e 00 25 fb 9875
3449 e019 8d STA 70 3e 00 25 fb 9877
3450 e01c 59 EOR 70 3e 00 25 fb 9881
3451 e01f d0 BNE 00 3e 00 27 fb 9885
3452 e021 70 BVS 00 3e 00 27 fb 9887
3453 e023 90 BCC 00 3e 00 27 fb 9889
3454 e025 10 BPL 00 3e 00 27 fb 9891
3455 e029 e8 INX 00 3e 00 27 fb 9894
3456 e02a 18 CLC 00 3f 00 25 fb 9896
3457 e02b 24 BIT 00 3f 00 24 fb 9898
3458 e02d a9 LDA 00 3f 00 e6 fb 9901
3459 e02f 8d STA 69 3f 00 64 fb 9903
3460 e032 a9 LDA 69 3f 00 64 fb 9907
3461 e034 79 ADC 00 3f 00 66 fb 9909
3462 e037 30 BMI 69 3f 00 24 fb 9913
3463 e039 b0 BCS 69 3f 00 24 fb 9915
3464 e03b c9 CMP 69 3f 00 24 fb 9917
3465 e03d d0 BNE 69 3f 00 27 fb 9919
3466 e03f 50 BVC 69 3f 00 27 fb 9921
3467 e043 e8 INX 69 3f 00 27 fb 9924
3468 e044 38 SEC 69 40 00 25 fb 9926
3469 e045 24 BIT 69 40 00 25 fb 9928
3470 e047 a9 LDA 69 40 00 e5 fb 9931
3471 e049 79 ADC 00 40 00 67 fb 9933
3472 e04c 30 BMI 6a 40 00 24 fb 9937
3473 e04e b0 BCS 6a 40 00 24 fb 9939
3474 e050 c9 CMP 6a 40 00 24 fb 9941
3475 e052 d0 BNE 6a 40 00 27 fb 9943
3476 e054 50 BVC 6a 40 00 27 fb 9945
3477 e058 e8 INX 6a 40 00 27 fb 9948
3478 e059 38 SEC 6a 41 00 25 fb 9950
3479 e05a b8 CLV 6a 41 00 25 fb 9952
3480 e05b a9 LDA 6a 41 00 25 fb 9954
3481 e05d 8d STA 7f 41 00 25 fb 9956
3482 e060 79 ADC 7f 41 00 25 fb 9960
3483 e063 10 BPL ff 41 00 e4 fb 9964
3484 e065 b0 BCS ff 41 00 e4 fb 9966
3485 e067 c9 CMP ff 41 00 e4 fb 9968
3486 e069 d0 BNE ff 41 00 67 fb 9970
3487 e06b 70 BVS ff 41 00 67 fb 9972
3488 e06f e8 INX ff 41 00 67 fb 9975
3489 e070 18 CLC ff 42 00 65 fb 9977
3490 e071 24 BIT ff 42 00 64 fb 9979
3491 e073 a9 LDA ff 42 00 e4 fb 9982
3492 e075 8d STA 80 42 00 e4 fb 9984
3493 e078 a9 LDA 80 42 00 e4 fb 9988
3494 e07a 79 ADC 7f 42 00 64 fb 9990
3495 e07d 10 BPL ff 42 00 a4 fb 9994
3496 e07f b0 BCS ff 42 00 a4 fb 9996
3497 e081 c9 CMP ff 42 00 a4 fb 9998
3498 e083 d0 BNE ff 42 00 27 fb 10000
3499 e085 50 BVC ff 42 00 27 fb 10002
3500 e089 e8 INX ff 42 00 27 fb 10005
3501 e08a 38 SEC ff 43 00 25 fb 10007
3502 e08b b8 CLV ff 43 00 25 fb 10009
3503 e08c a9 LDA ff 43 00 25 fb 10011
3504 e08e 8d STA 80 43 00 a5 fb 10013
3505 e091 a9 LDA 80 43 00 a5 fb 10017
3506 e093 79 ADC 7f 43 00 25 fb 10019
3507 e096 d0 BNE 00 43 00 27 fb 10023
3508 e098 30 BMI 00 43 00 27 fb 10025
3509 e09a 70 BVS 00 43 00 27 fb 10027
3510 e09c b0 BCS 00 43 00 27 fb 10029
3511 e0a0 e8 INX 00 43 00 27 fb 10032
3512 e0a1 24 BIT 00 44 00 25 fb 10034
3513 e0a3 a9 LDA 00 44 00 e7 fb 10037
3514 e0a5 8d STA 40 44 00 65 fb 10039
3515 e0a8 d9 CMP 40 44 00 65 fb 10043
3516 e0ab 30 BMI 40 44 00 67 fb 10047
3517 e0ad 90 BCC 40 44 00 67 fb 10049
3518 e0af d0 BNE 40 44 00 67 fb 10051
3519 e0b1 70 BVS 40 44 00 67 fb 10053
3520 e0b5 e8 INX 40 44 00 67 fb 10056
3521 e0b6 b8 CLV 40 45 00 65 fb 10058
3522 e0b7 ce DEC 40 45 00 25 fb 10060
3523 e0ba d9 CMP 40 45 00 25 fb 10066
3524 e0bd f0 BEQ 40 45 00 25 fb 10070
3525 e0bf 30 BMI 40 45 00 25 fb 10072
3526 e0c1 90 BCC 40 45 00 25 fb 10074
3527 e0c3 50 BVC 40 45 00 25 fb 10076
3528 e0c7 e8 INX 40 45 00 25 fb 10079
3529 e0c8 ee INC 40 46 00 25 fb 10081
3530 e0cb ee INC 40 46 00 25 fb 10087
3531 e0ce d9 CMP 40 46 00 25 fb 10093
3532 e0d1 f0 BEQ 40 46 00 a4 fb 10097
3533 e0d3 30 BMI 40 46 00 a4 fb 10099
3534 e0d7 e8 INX 40 46 00 a4 fb 10102
3535 e0d8 a9 LDA 40 47 00 24 fb 10104
3536 e0da 8d STA 00 47 00 26 fb 10106
3537 e0dd a9 LDA 00 47 00 26 fb 10110
3538 e0df d9 CMP 80 47 00 a4 fb 10112
3539 e0e2 f0 BEQ 80 47 00 a5 fb 10116
3540 e0e4 10 BPL 80 47 00 a5 fb 10118
3541 e0e6 b0 BCS 80 47 00 a5 fb 10120
3542 e0ea e8 INX 80 47 00 a5 fb 10123
3543 e0eb a0 LDY 80 48 00 25 fb 10125
3544 e0ed 8c STY 80 48 80 a5 fb 10127
3545 e0f0 a0 LDY 80 48 80 a5 fb 10131
3546 e0f2 d9 CMP 80 48 00 27 fb 10133
3547 e0f5 d0 BNE 80 48 00 27 fb 10137
3548 e0f7 30 BMI 80 48 00 27 fb 10139
3549 e0f9 b0 BCS 80 48 00 27 fb 10141
3550 e0fd e8 INX 80 48 00 27 fb 10144
3551 e0fe ee INC 80 49 00 25 fb 10146
3552 e101 d9 CMP 80 49 00 a5 fb 10152
3553 e104 b0 BCS 80 49 00 a4 fb 10156
3554 e106 f0 BEQ 80 49 00 a4 fb 10158
3555 e108 30 BMI 80 49 00 a4 fb 10160
3556 e10c e8 INX 80 49 00 a4 fb 10163
3557 e10d ce DEC 80 4a 00 24 fb 10165
3558 e110 ce DEC 80 4a 00 a4 fb 10171
3559 e113 d9 CMP 80 4a 00 24 fb 10177
3560 e116 90 BCC 80 4a 00 25 fb 10181
3561 e118 f0 BEQ 80 4a 00 25 fb 10183
3562 e11a 10 BPL 80 4a 00 25 fb 10185
3563 e11e e8 INX 80 4a 00 25 fb 10188
3564 e11f 24 BIT 80 4b 00 25 fb 10190
3565 e121 a9 LDA 80 4b 00 e5 fb 10193
3566 e123 8d STA 40 4b 00 65 fb 10195
3567 e126 38 SEC 40 4b 00 65 fb 10199
3568 e127 f9 SBC 40 4b 00 65 fb 10201
3569 e12a 30 BMI 00 4b 00 27 fb 10205
3570 e12c 90 BCC 00 4b 00 27 fb 10207
3571 e12e d0 BNE 00 4b 00 27 fb 10209
3572 e130 70 BVS 00 4b 00 27 fb 10211
3573 e132 c9 CMP 00 4b 00 27 fb 10213
3574 e134 f0 BEQ 00 4b 00 27 fb 10215
3575 e138 e8 INX 00 4b 00 27 fb 10218
3576 e139 b8 CLV 00 4c 00 25 fb 10220
3577 e13a 38 SEC 00 4c 00 25 fb 10222
3578 e13b a9 LDA 00 4c 00 25 fb 10224
3579 e13d ce DEC 40 4c 00 25 fb 10226
3580 e140 f9 SBC 40 4c 00 25 fb 10232
3581 e143 f0 BEQ 01 4c 00 25 fb 10236
3582 e145 30 BMI 01 4c 00 25 fb 10238
3583 e147 90 BCC 01 4c 00 25 fb 10240
3584 e149 70 BVS 01 4c 00 25 fb 10242
3585 e14b c9 CMP 01 4c 00 25 fb 10244
3586 e14d f0 BEQ 01 4c 00 27 fb 10246
3587 e151 e8 INX 01 4c 00 27 fb 10249
3588 e152 a9 LDA 01 4d 00 25 fb 10251
3589 e154 38 SEC 40 4d 00 25 fb 10253
3590 e155 24 BIT 40 4d 00 25 fb 10255
3591 e157 ee INC 40 4d 00 e5 fb 10258
3592 e15a ee INC 40 4d 00 65 fb 10264
3593 e15d f9 SBC 40 4d 00 65 fb 10270
3594 e160 b0 BCS ff 4d 00 a4 fb 10274
3595 e162 f0 BEQ ff 4d 00 a4 fb 10276
3596 e164 10 BPL ff 4d 00 a4 fb 10278
3597 e166 70 BVS ff 4d 00 a4 fb 10280
3598 e168 c9 CMP ff 4d 00 a4 fb 10282
3599 e16a f0 BEQ ff 4d 00 27 fb 10284
3600 e16e e8 INX ff 4d 00 27 fb 10287
3601 e16f 18 CLC ff 4e 00 25 fb 10289
3602 e170 a9 LDA ff 4e 00 24 fb 10291
3603 e172 8d STA 00 4e 00 26 fb 10293
3604 e175 a9 LDA 00 4e 00 26 fb 10297
3605 e177 f9 SBC 80 4e 00 a4 fb 10299
3606 e17a 90 BCC 7f 4e 00 65 fb 10303
3607 e17c c9 CMP 7f 4e 00 65 fb 10305
3608 e17e f0 BEQ 7f 4e 00 67 fb 10307
3609 e182 e8 INX 7f 4e 00 67 fb 10310
3610 e183 38 SEC 7f 4f 00 65 fb 10312
3611 e184 a9 LDA 7f 4f 00 65 fb 10314
3612 e186 8d STA 7f 4f 00 65 fb 10316
3613 e189 a9 LDA 7f 4f 00 65 fb 10320
3614 e18b f9 SBC 81 4f 00 e5 fb 10322
3615 e18e 50 BVC 02 4f 00 65 fb 10326
3616 e190 90 BCC 02 4f 00 65 fb 10328
3617 e192 c9 CMP 02 4f 00 65 fb 10330
3618 e194 f0 BEQ 02 4f 00 67 fb 10332
3619 e198 e8 INX 02 4f 00 67 fb 10335
3620 e199 a9 LDA 02 50 00 65 fb 10337
3621 e19b a9 LDA 00 50 00 67 fb 10339
3622 e19d 99 STA 87 50 00 e5 fb 10341
3623 e1a0 ad LDA 87 50 00 e5 fb 10346
3624 e1a3 c9 CMP 87 50 00 e5 fb 10350
3625 e1a5 f0 BEQ 87 50 00 67 fb 10352
3626 e1a9 60 RTS 87 50 00 67 fb 10355
3627 c629 20 JSR 87 50 00 67 fd 10361
3628 dbb8 a9 LDA 87 50 00 67 fb 10367
3629 dbba 85 STA ff 50 00 e5 fb 10369
3630 dbbc a9 LDA ff 50 00 e5 fb 10372
3631 dbbe 85 STA aa 50 00 e5 fb 10374
3632 dbc0 a9 LDA aa 50 00 e5 fb 10377
3633 dbc2 85 STA bb 50 00 e5 fb 10379
3634 dbc4 a2 LDX bb 50 00 e5 fb 10382
3635 dbc6 a9 LDA bb 00 00 67 fb 10384
3636 dbc8 24 BIT 66 00 00 65 fb 10386
3637 dbca 38 SEC 66 00 00 e5 fb 10389
3638 dbcb a0 LDY 66 00 00 e5 fb 10391
3639 dbcd b4 LDY 66 00 00 67 fb 10393
3640 dbcf 10 BPL 66 00 aa e5 fb 10397
3641 dbd1 f0 BEQ 66 00 aa e5 fb 10399
3642 dbd3 50 BVC 66 00 aa e5 fb 10401
3643 dbd5 90 BCC 66 00 aa e5 fb 10403
3644 dbd7 c9 CMP 66 00 aa e5 fb 10405
3645 dbd9 d0 BNE 66 00 aa 67 fb 10407
3646 dbdb e0 CPX 66 00 aa 67 fb 10409
3647 dbdd d0 BNE 66 00 aa 67 fb 10411
3648 dbdf c0 CPY 66 00 aa 67 fb 10413
3649 dbe1 f0 BEQ 66 00 aa 67 fb 10415
3650 dbe7 a2 LDX 66 00 aa 67 fb 10418
3651 dbe9 a9 LDA 66 8a aa e5 fb 10420
3652 dbeb b8 CLV 66 8a aa 65 fb 10422
3653 dbec 18 CLC 66 8a aa 25 fb 10424
3654 dbed a0 LDY 66 8a aa 24 fb 10426
3655 dbef b4 LDY 66 8a 00 26 fb 10428
3656 dbf1 10 BPL 66 8a bb a4 fb 10432
3657 dbf3 f0 BEQ 66 8a bb a4 fb 10434
3658 dbf5 70 BVS 66 8a bb a4 fb 10436
3659 dbf7 b0 BCS 66 8a bb a4 fb 10438
3660 dbf9 c0 CPY 66 8a bb a4 fb 10440
3661 dbfb d0 BNE 66 8a bb 27 fb 10442
3662 dbfd c9 CMP 66 8a bb 27 fb 10444
3663 dbff d0 BNE 66 8a bb 27 fb 10446
3664 dc01 e0 CPX 66 8a bb 27 fb 10448
3665 dc03 f0 BEQ 66 8a bb 27 fb 10450
3666 dc09 24 BIT 66 8a bb 27 fb 10453
3667 dc0b 38 SEC 66 8a bb e5 fb 10456
3668 dc0c a0 LDY 66 8a bb e5 fb 10458
3669 dc0e a2 LDX 66 8a 44 65 fb 10460
3670 dc10 94 STY 66 00 44 67 fb 10462
3671 dc12 a5 LDA 66 00 44 67 fb 10466
3672 dc14 90 BCC 44 00 44 65 fb 10469
3673 dc16 c9 CMP 44 00 44 65 fb 10471
3674 dc18 d0 BNE 44 00 44 67 fb 10473
3675 dc1a 50 BVC 44 00 44 67 fb 10475
3676 dc1c 18 CLC 44 00 44 67 fb 10477
3677 dc1d b8 CLV 44 00 44 66 fb 10479
3678 dc1e a0 LDY 44 00 44 26 fb 10481
3679 dc20 a2 LDX 44 00 99 a4 fb 10483
3680 dc22 94 STY 44 80 99 a4 fb 10485
3681 dc24 a5 LDA 44 80 99 a4 fb 10489
3682 dc26 b0 BCS 99 80 99 a4 fb 10492
3683 dc28 c9 CMP 99 80 99 a4 fb 10494
3684 dc2a d0 BNE 99 80 99 27 fb 10496
3685 dc2c 50 BVC 99 80 99 27 fb 10498
3686 dc32 a0 LDY 99 80 99 27 fb 10501
3687 dc34 a9 LDA 99 80 0b 25 fb 10503
3688 dc36 a2 LDX aa 80 0b a5 fb 10505
3689 dc38 85 STA aa 78 0b 25 fb 10507
3690 dc3a 20 JSR aa 78 0b 25 fb 10510
3691 f7b6 18 CLC aa 78 0b 25 f9 10516
3692 f7b7 a9 LDA aa 78 0b 24 f9 10518
3693 f7b9 85 STA ff 78 0b a4 f9 10520
3694 f7bb 24 BIT ff 78 0b a4 f9 10523
3695 f7bd a9 LDA ff 78 0b e4 f9 10526
3696 f7bf 60 RTS 55 78 0b 64 f9 10528
3697 dc3d 15 ORA 55 78 0b 64 fb 10534
3698 dc3f 20 JSR ff 78 0b e4 fb 10538
3699 f7c0 b0 BCS ff 78 0b e4 f9 10544
3700 f7c2 10 BPL ff 78 0b e4 f9 10546
3701 f7c4 c9 CMP ff 78 0b e4 f9 10548
3702 f7c6 d0 BNE ff 78 0b 67 f9 10550
3703 f7c8 50 BVC ff 78 0b 67 f9 10552
3704 f7ca 60 RTS ff 78 0b 67 f9 10554
3705 dc42 c8 INY ff 78 0b 67 fb 10560
3706 dc43 a9 LDA ff 78 0c 65 fb 10562
3707 dc45 85 STA 00 78 0c 67 fb 10564
3708 dc47 20 JSR 00 78 0c 67 fb 10567
3709 f7ce 38 SEC 00 78 0c 67 f9 10573
3710 f7cf b8 CLV 00 78 0c 67 f9 10575
3711 f7d0 a9 LDA 00 78 0c 27 f9 10577
3712 f7d2 60 RTS 00 78 0c 27 f9 10579
3713 dc4a 15 ORA 00 78 0c 27 fb 10585
3714 dc4c 20 JSR 00 78 0c 27 fb 10589
3715 f7d3 d0 BNE 00 78 0c 27 f9 10595
3716 f7d5 70 BVS 00 78 0c 27 f9 10597
3717 f7d7 90 BCC 00 78 0c 27 f9 10599
3718 f7d9 30 BMI 00 78 0c 27 f9 10601
3719 f7db 60 RTS 00 78 0c 27 f9 10603
3720 dc4f c8 INY 00 78 0c 27 fb 10609
3721 dc50 a9 LDA 00 78 0d 25 fb 10611
3722 dc52 85 STA aa 78 0d a5 fb 10613
3723 dc54 20 JSR aa 78 0d a5 fb 10616
3724 f7df 18 CLC aa 78 0d a5 f9 10622
3725 f7e0 24 BIT aa 78 0d a4 f9 10624
3726 f7e2 a9 LDA aa 78 0d e4 f9 10627
3727 f7e4 60 RTS 55 78 0d 64 f9 10629
3728 dc57 35 AND 55 78 0d 64 fb 10635
3729 dc59 20 JSR 00 78 0d 66 fb 10639
3730 f7e5 d0 BNE 00 78 0d 66 f9 10645
3731 f7e7 50 BVC 00 78 0d 66 f9 10647
3732 f7e9 b0 BCS 00 78 0d 66 f9 10649
3733 f7eb 30 BMI 00 78 0d 66 f9 10651
3734 f7ed 60 RTS 00 78 0d 66 f9 10653
3735 dc5c c8 INY 00 78 0d 66 fb 10659
3736 dc5d a9 LDA 00 78 0e 64 fb 10661
3737 dc5f 85 STA ef 78 0e e4 fb 10663
3738 dc61 20 JSR ef 78 0e e4 fb 10666
3739 f7f1 38 SEC ef 78 0e e4 f9 10672
3740 f7f2 b8 CLV ef 78 0e e5 f9 10674
3741 f7f3 a9 LDA ef 78 0e a5 f9 10676
3742 f7f5 60 RTS f8 78 0e a5 f9 10678
3743 dc64 35 AND f8 78 0e a5 fb 10684
3744 dc66 20 JSR e8 78 0e a5 fb 10688
3745 f7f6 90 BCC e8 78 0e a5 f9 10694
3746 f7f8 10 BPL e8 78 0e a5 f9 10696
3747 f7fa c9 CMP e8 78 0e a5 f9 10698
3748 f7fc d0 BNE e8 78 0e 27 f9 10700
3749 f7fe 70 BVS e8 78 0e 27 f9 10702
3750 f800 60 RTS e8 78 0e 27 f9 10704
3751 dc69 c8 INY e8 78 0e 27 fb 10710
3752 dc6a a9 LDA e8 78 0f 25 fb 10712
3753 dc6c 85 STA aa 78 0f a5 fb 10714
3754 dc6e 20 JSR aa 78 0f a5 fb 10717
3755 f804 18 CLC aa 78 0f a5 f9 10723
3756 f805 24 BIT aa 78 0f a4 f9 10725
3757 f807 a9 LDA aa 78 0f e4 f9 10728
3758 f809 60 RTS 5f 78 0f 64 f9 10730
3759 dc71 55 EOR 5f 78 0f 64 fb 10736
3760 dc73 20 JSR f5 78 0f e4 fb 10740
3761 f80a b0 BCS f5 78 0f e4 f9 10746
3762 f80c 10 BPL f5 78 0f e4 f9 10748
3763 f80e c9 CMP f5 78 0f e4 f9 10750
3764 f810 d0 BNE f5 78 0f 67 f9 10752
3765 f812 50 BVC f5 78 0f 67 f9 10754
3766 f814 60 RTS f5 78 0f 67 f9 10756
3767 dc76 c8 INY f5 78 0f 67 fb 10762
3768 dc77 a9 LDA f5 78 10 65 fb 10764
3769 dc79 85 STA 70 78 10 65 fb 10766
3770 dc7b 20 JSR 70 78 10 65 fb 10769
3771 f818 38 SEC 70 78 10 65 f9 10775
3772 f819 b8 CLV 70 78 10 65 f9 10777
3773 f81a a9 LDA 70 78 10 25 f9 10779
3774 f81c 60 RTS 70 78 10 25 f9 10781
3775 dc7e 55 EOR 70 78 10 25 fb 10787
3776 dc80 20 JSR 00 78 10 27 fb 10791
3777 f81d d0 BNE 00 78 10 27 f9 10797
3778 f81f 70 BVS 00 78 10 27 f9 10799
3779 f821 90 BCC 00 78 10 27 f9 10801
3780 f823 30 BMI 00 78 10 27 f9 10803
3781 f825 60 RTS 00 78 10 27 f9 10805
3782 dc83 c8 INY 00 78 10 27 fb 10811
3783 dc84 a9 LDA 00 78 11 25 fb 10813
3784 dc86 85 STA 69 78 11 25 fb 10815
3785 dc88 20 JSR 69 78 11 25 fb 10818
3786 f829 18 CLC 69 78 11 25 f9 10824
3787 f82a 24 BIT 69 78 11 24 f9 10826
3788 f82c a9 LDA 69 78 11 e4 f9 10829
3789 f82e 60 RTS 00 78 11 66 f9 10831
3790 dc8b 75 ADC 00 78 11 66 fb 10837
3791 dc8d 20 JSR 69 78 11 24 fb 10841
3792 f82f 30 BMI 69 78 11 24 f9 10847
3793 f831 b0 BCS 69 78 11 24 f9 10849
3794 f833 c9 CMP 69 78 11 24 f9 10851
3795 f835 d0 BNE 69 78 11 27 f9 10853
3796 f837 70 BVS 69 78 11 27 f9 10855
3797 f839 60 RTS 69 78 11 27 f9 10857
3798 dc90 c8 INY 69 78 11 27 fb 10863
3799 dc91 20 JSR 69 78 12 25 fb 10865
3800 f83d 38 SEC 69 78 12 25 f9 10871
3801 f83e 24 BIT 69 78 12 25 f9 10873
3802 f840 a9 LDA 69 78 12 e5 f9 10876
3803 f842 60 RTS 00 78 12 67 f9 10878
3804 dc94 75 ADC 00 78 12 67 fb 10884
3805 dc96 20 JSR 6a 78 12 24 fb 10888
3806 f843 30 BMI 6a 78 12 24 f9 10894
3807 f845 b0 BCS 6a 78 12 24 f9 10896
3808 f847 c9 CMP 6a 78 12 24 f9 10898
3809 f849 d0 BNE 6a 78 12 27 f9 10900
3810 f84b 70 BVS 6a 78 12 27 f9 10902
3811 f84d 60 RTS 6a 78 12 27 f9 10904
3812 dc99 c8 INY 6a 78 12 27 fb 10910
3813 dc9a a9 LDA 6a 78 13 25 fb 10912
3814 dc9c 85 STA 7f 78 13 25 fb 10914
3815 dc9e 20 JSR 7f 78 13 25 fb 10917
3816 f851 38 SEC 7f 78 13 25 f9 10923
3817 f852 b8 CLV 7f 78 13 25 f9 10925
3818 f853 a9 LDA 7f 78 13 25 f9 10927
3819 f855 60 RTS 7f 78 13 25 f9 10929
3820 dca1 75 ADC 7f 78 13 25 fb 10935
3821 dca3 20 JSR ff 78 13 e4 fb 10939
3822 f856 10 BPL ff 78 13 e4 f9 10945
3823 f858 b0 BCS ff 78 13 e4 f9 10947
3824 f85a c9 CMP ff 78 13 e4 f9 10949
3825 f85c d0 BNE ff 78 13 67 f9 10951
3826 f85e 50 BVC ff 78 13 67 f9 10953
3827 f860 60 RTS ff 78 13 67 f9 10955
3828 dca6 c8 INY ff 78 13 67 fb 10961
3829 dca7 a9 LDA ff 78 14 65 fb 10963
3830 dca9 85 STA 80 78 14 e5 fb 10965
3831 dcab 20 JSR 80 78 14 e5 fb 10968
3832 f864 18 CLC 80 78 14 e5 f9 10974
3833 f865 24 BIT 80 78 14 e4 f9 10976
3834 f867 a9 LDA 80 78 14 e4 f9 10979
3835 f869 60 RTS 7f 78 14 64 f9 10981
3836 dcae 75 ADC 7f 78 14 64 fb 10987
3837 dcb0 20 JSR ff 78 14 a4 fb 10991
3838 f86a 10 BPL ff 78 14 a4 f9 10997
3839 f86c b0 BCS ff 78 14 a4 f9 10999
3840 f86e c9 CMP ff 78 14 a4 f9 11001
3841 f870 d0 BNE ff 78 14 27 f9 11003
3842 f872 70 BVS ff 78 14 27 f9 11005
3843 f874 60 RTS ff 78 14 27 f9 11007
3844 dcb3 c8 INY ff 78 14 27 fb 11013
3845 dcb4 20 JSR ff 78 15 25 fb 11015
3846 f878 38 SEC ff 78 15 25 f9 11021
3847 f879 b8 CLV ff 78 15 25 f9 11023
3848 f87a a9 LDA ff 78 15 25 f9 11025
3849 f87c 60 RTS 7f 78 15 25 f9 11027
3850 dcb7 75 ADC 7f 78 15 25 fb 11033
3851 dcb9 20 JSR 00 78 15 27 fb 11037
3852 f87d d0 BNE 00 78 15 27 f9 11043
3853 f87f 30 BMI 00 78 15 27 f9 11045
3854 f881 70 BVS 00 78 15 27 f9 11047
3855 f883 90 BCC 00 78 15 27 f9 11049
3856 f885 60 RTS 00 78 15 27 f9 11051
3857 dcbc c8 INY 00 78 15 27 fb 11057
3858 dcbd a9 LDA 00 78 16 25 fb 11059
3859 dcbf 85 STA 40 78 16 25 fb 11061
3860 dcc1 20 JSR 40 78 16 25 fb 11064
3861 f889 24 BIT 40 78 16 25 f9 11070
3862 f88b a9 LDA 40 78 16 e5 f9 11073
3863 f88d 60 RTS 40 78 16 65 f9 11075
3864 dcc4 d5 CMP 40 78 16 65 fb 11081
3865 dcc6 20 JSR 40 78 16 67 fb 11085
3866 f88e 30 BMI 40 78 16 67 f9 11091
3867 f890 90 BCC 40 78 16 67 f9 11093
3868 f892 d0 BNE 40 78 16 67 f9 11095
3869 f894 50 BVC 40 78 16 67 f9 11097
3870 f896 60 RTS 40 78 16 67 f9 11099
3871 dcc9 c8 INY 40 78 16 67 fb 11105
3872 dcca 48 PHA 40 78 17 65 fb 11107
3873 dccb a9 LDA 40 78 17 65 fa 11110
3874 dccd 85 STA 3f 78 17 65 fa 11112
3875 dccf 68 PLA 3f 78 17 65 fa 11115
3876 dcd0 20 JSR 40 78 17 65 fb 11119
3877 f89a b8 CLV 40 78 17 65 f9 11125
3878 f89b 60 RTS 40 78 17 25 f9 11127
3879 dcd3 d5 CMP 40 78 17 25 fb 11133
3880 dcd5 20 JSR 40 78 17 25 fb 11137
3881 f89c f0 BEQ 40 78 17 25 f9 11143
3882 f89e 30 BMI 40 78 17 25 f9 11145
3883 f8a0 90 BCC 40 78 17 25 f9 11147
3884 f8a2 70 BVS 40 78 17 25 f9 11149
3885 f8a4 60 RTS 40 78 17 25 f9 11151
3886 dcd8 c8 INY 40 78 17 25 fb 11157
3887 dcd9 48 PHA 40 78 18 25 fb 11159
3888 dcda a9 LDA 40 78 18 25 fa 11162
3889 dcdc 85 STA 41 78 18 25 fa 11164
3890 dcde 68 PLA 41 78 18 25 fa 11167
3891 dcdf d5 CMP 40 78 18 25 fb 11171
3892 dce1 20 JSR 40 78 18 a4 fb 11175
3893 f8a8 f0 BEQ 40 78 18 a4 f9 11181
3894 f8aa 10 BPL 40 78 18 a4 f9 11183
3895 f8ac 10 BPL 40 78 18 a4 f9 11185
3896 f8ae 60 RTS 40 78 18 a4 f9 11187
3897 dce4 c8 INY 40 78 18 a4 fb 11193
3898 dce5 48 PHA 40 78 19 24 fb 11195
3899 dce6 a9 LDA 40 78 19 24 fa 11198
3900 dce8 85 STA 00 78 19 26 fa 11200
3901 dcea 68 PLA 00 78 19 26 fa 11203
3902 dceb 20 JSR 40 78 19 24 fb 11207
3903 f8b2 a9 LDA 40 78 19 24 f9 11213
3904 f8b4 60 RTS 80 78 19 a4 f9 11215
3905 dcee d5 CMP 80 78 19 a4 fb 11221
3906 dcf0 20 JSR 80 78 19 a5 fb 11225
3907 f8b5 f0 BEQ 80 78 19 a5 f9 11231
3908 f8b7 10 BPL 80 78 19 a5 f9 11233
3909 f8b9 90 BCC 80 78 19 a5 f9 11235
3910 f8bb 60 RTS 80 78 19 a5 f9 11237
3911 dcf3 c8 INY 80 78 19 a5 fb 11243
3912 dcf4 48 PHA 80 78 1a 25 fb 11245
3913 dcf5 a9 LDA 80 78 1a 25 fa 11248
3914 dcf7 85 STA 80 78 1a a5 fa 11250
3915 dcf9 68 PLA 80 78 1a a5 fa 11253
3916 dcfa d5 CMP 80 78 1a a5 fb 11257
3917 dcfc 20 JSR 80 78 1a 27 fb 11261
3918 f8bf d0 BNE 80 78 1a 27 f9 11267
3919 f8c1 30 BMI 80 78 1a 27 f9 11269
3920 f8c3 90 BCC 80 78 1a 27 f9 11271
3921 f8c5 60 RTS 80 78 1a 27 f9 11273
3922 dcff c8 INY 80 78 1a 27 fb 11279
3923 dd00 48 PHA 80 78 1b 25 fb 11281
3924 dd01 a9 LDA 80 78 1b 25 fa 11284
3925 dd03 85 STA 81 78 1b a5 fa 11286
3926 dd05 68 PLA 81 78 1b a5 fa 11289
3927 dd06 d5 CMP 80 78 1b a5 fb 11293
3928 dd08 20 JSR 80 78 1b a4 fb 11297
3929 f8c9 b0 BCS 80 78 1b a4 f9 11303
3930 f8cb f0 BEQ 80 78 1b a4 f9 11305
3931 f8cd 10 BPL 80 78 1b a4 f9 11307
3932 f8cf 60 RTS 80 78 1b a4 f9 11309
3933 dd0b c8 INY 80 78 1b a4 fb 11315
3934 dd0c 48 PHA 80 78 1c 24 fb 11317
3935 dd0d a9 LDA 80 78 1c 24 fa 11320
3936 dd0f 85 STA 7f 78 1c 24 fa 11322
3937 dd11 68 PLA 7f 78 1c 24 fa 11325
3938 dd12 d5 CMP 80 78 1c a4 fb 11329
3939 dd14 20 JSR 80 78 1c 25 fb 11333
3940 f8d3 90 BCC 80 78 1c 25 f9 11339
3941 f8d5 f0 BEQ 80 78 1c 25 f9 11341
3942 f8d7 30 BMI 80 78 1c 25 f9 11343
3943 f8d9 60 RTS 80 78 1c 25 f9 11345
3944 dd17 c8 INY 80 78 1c 25 fb 11351
3945 dd18 a9 LDA 80 78 1d 25 fb 11353
3946 dd1a 85 STA 40 78 1d 25 fb 11355
3947 dd1c 20 JSR 40 78 1d 25 fb 11358
3948 f931 24 BIT 40 78 1d 25 f9 11364
3949 f933 a9 LDA 40 78 1d e5 f9 11367
3950 f935 38 SEC 40 78 1d 65 f9 11369
3951 f936 60 RTS 40 78 1d 65 f9 11371
3952 dd1f f5 SBC 40 78 1d 65 fb 11377
3953 dd21 20 JSR 00 78 1d 27 fb 11381
3954 f937 30 BMI 00 78 1d 27 f9 11387
3955 f939 90 BCC 00 78 1d 27 f9 11389
3956 f93b d0 BNE 00 78 1d 27 f9 11391
3957 f93d 70 BVS 00 78 1d 27 f9 11393
3958 f93f c9 CMP 00 78 1d 27 f9 11395
3959 f941 d0 BNE 00 78 1d 27 f9 11397
3960 f943 60 RTS 00 78 1d 27 f9 11399
3961 dd24 c8 INY 00 78 1d 27 fb 11405
3962 dd25 a9 LDA 00 78 1e 25 fb 11407
3963 dd27 85 STA 3f 78 1e 25 fb 11409
3964 dd29 20 JSR 3f 78 1e 25 fb 11412
3965 f947 b8 CLV 3f 78 1e 25 f9 11418
3966 f948 38 SEC 3f 78 1e 25 f9 11420
3967 f949 a9 LDA 3f 78 1e 25 f9 11422
3968 f94b 60 RTS 40 78 1e 25 f9 11424
3969 dd2c f5 SBC 40 78 1e 25 fb 11430
3970 dd2e 20 JSR 01 78 1e 25 fb 11434
3971 f94c f0 BEQ 01 78 1e 25 f9 11440
3972 f94e 30 BMI 01 78 1e 25 f9 11442
3973 f950 90 BCC 01 78 1e 25 f9 11444
3974 f952 70 BVS 01 78 1e 25 f9 11446
3975 f954 c9 CMP 01 78 1e 25 f9 11448
3976 f956 d0 BNE 01 78 1e 27 f9 11450
3977 f958 60 RTS 01 78 1e 27 f9 11452
3978 dd31 c8 INY 01 78 1e 27 fb 11458
3979 dd32 a9 LDA 01 78 1f 25 fb 11460
3980 dd34 85 STA 41 78 1f 25 fb 11462
3981 dd36 20 JSR 41 78 1f 25 fb 11465
3982 f95c a9 LDA 41 78 1f 25 f9 11471
3983 f95e 38 SEC 40 78 1f 25 f9 11473
3984 f95f 24 BIT 40 78 1f 25 f9 11475
3985 f961 60 RTS 40 78 1f e5 f9 11478
3986 dd39 f5 SBC 40 78 1f e5 fb 11484
3987 dd3b 20 JSR ff 78 1f a4 fb 11488
3988 f962 b0 BCS ff 78 1f a4 f9 11494
3989 f964 f0 BEQ ff 78 1f a4 f9 11496
3990 f966 10 BPL ff 78 1f a4 f9 11498
3991 f968 70 BVS ff 78 1f a4 f9 11500
3992 f96a c9 CMP ff 78 1f a4 f9 11502
3993 f96c d0 BNE ff 78 1f 27 f9 11504
3994 f96e 60 RTS ff 78 1f 27 f9 11506
3995 dd3e c8 INY ff 78 1f 27 fb 11512
3996 dd3f a9 LDA ff 78 20 25 fb 11514
3997 dd41 85 STA 00 78 20 27 fb 11516
3998 dd43 20 JSR 00 78 20 27 fb 11519
3999 f972 18 CLC 00 78 20 27 f9 11525
4000 f973 a9 LDA 00 78 20 26 f9 11527
4001 f975 60 RTS 80 78 20 a4 f9 11529
4002 dd46 f5 SBC 80 78 20 a4 fb 11535
4003 dd48 20 JSR 7f 78 20 65 fb 11539
4004 f976 90 BCC 7f 78 20 65 f9 11545
4005 f978 c9 CMP 7f 78 20 65 f9 11547
4006 f97a d0 BNE 7f 78 20 67 f9 11549
4007 f97c 60 RTS 7f 78 20 67 f9 11551
4008 dd4b c8 INY 7f 78 20 67 fb 11557
4009 dd4c a9 LDA 7f 78 21 65 fb 11559
4010 dd4e 85 STA 7f 78 21 65 fb 11561
4011 dd50 20 JSR 7f 78 21 65 fb 11564
4012 f980 38 SEC 7f 78 21 65 f9 11570
4013 f981 a9 LDA 7f 78 21 65 f9 11572
4014 f983 60 RTS 81 78 21 e5 f9 11574
4015 dd53 f5 SBC 81 78 21 e5 fb 11580
4016 dd55 20 JSR 02 78 21 65 fb 11584
4017 f984 50 BVC 02 78 21 65 f9 11590
4018 f986 90 BCC 02 78 21 65 f9 11592
4019 f988 c9 CMP 02 78 21 65 f9 11594
4020 f98a d0 BNE 02 78 21 67 f9 11596
4021 f98c 60 RTS 02 78 21 67 f9 11598
4022 dd58 a9 LDA 02 78 21 67 fb 11604
4023 dd5a 85 STA aa 78 21 e5 fb 11606
4024 dd5c a9 LDA aa 78 21 e5 fb 11609
4025 dd5e 85 STA bb 78 21 e5 fb 11611
4026 dd60 a2 LDX bb 78 21 e5 fb 11614
4027 dd62 a0 LDY bb 00 21 67 fb 11616
4028 dd64 24 BIT bb 00 66 65 fb 11618
4029 dd66 38 SEC bb 00 66 e5 fb 11621
4030 dd67 a9 LDA bb 00 66 e5 fb 11623
4031 dd69 b5 LDA 00 00 66 67 fb 11625
4032 dd6b 10 BPL aa 00 66 e5 fb 11629
4033 dd6d f0 BEQ aa 00 66 e5 fb 11631
4034 dd6f 50 BVC aa 00 66 e5 fb 11633
4035 dd71 90 BCC aa 00 66 e5 fb 11635
4036 dd73 c0 CPY aa 00 66 e5 fb 11637
4037 dd75 d0 BNE aa 00 66 67 fb 11639
4038 dd77 e0 CPX aa 00 66 67 fb 11641
4039 dd79 d0 BNE aa 00 66 67 fb 11643
4040 dd7b c9 CMP aa 00 66 67 fb 11645
4041 dd7d f0 BEQ aa 00 66 67 fb 11647
4042 dd83 a2 LDX aa 00 66 67 fb 11650
4043 dd85 a0 LDY aa 8a 66 e5 fb 11652
4044 dd87 b8 CLV aa 8a 66 65 fb 11654
4045 dd88 18 CLC aa 8a 66 25 fb 11656
4046 dd89 a9 LDA aa 8a 66 24 fb 11658
4047 dd8b b5 LDA 00 8a 66 26 fb 11660
4048 dd8d 10 BPL bb 8a 66 a4 fb 11664
4049 dd8f f0 BEQ bb 8a 66 a4 fb 11666
4050 dd91 70 BVS bb 8a 66 a4 fb 11668
4051 dd93 b0 BCS bb 8a 66 a4 fb 11670
4052 dd95 c9 CMP bb 8a 66 a4 fb 11672
4053 dd97 d0 BNE bb 8a 66 27 fb 11674
4054 dd99 c0 CPY bb 8a 66 27 fb 11676
4055 dd9b d0 BNE bb 8a 66 27 fb 11678
4056 dd9d e0 CPX bb 8a 66 27 fb 11680
4057 dd9f f0 BEQ bb 8a 66 27 fb 11682
4058 dda5 24 BIT bb 8a 66 27 fb 11685
4059 dda7 38 SEC bb 8a 66 e5 fb 11688
4060 dda8 a9 LDA bb 8a 66 e5 fb 11690
4061 ddaa a2 LDX 44 8a 66 65 fb 11692
4062 ddac 95 STA 44 00 66 67 fb 11694
4063 ddae a5 LDA 44 00 66 67 fb 11698
4064 ddb0 90 BCC 44 00 66 65 fb 11701
4065 ddb2 c9 CMP 44 00 66 65 fb 11703
4066 ddb4 d0 BNE 44 00 66 67 fb 11705
4067 ddb6 50 BVC 44 00 66 67 fb 11707
4068 ddb8 18 CLC 44 00 66 67 fb 11709
4069 ddb9 b8 CLV 44 00 66 66 fb 11711
4070 ddba a9 LDA 44 00 66 26 fb 11713
4071 ddbc a2 LDX 99 00 66 a4 fb 11715
4072 ddbe 95 STA 99 80 66 a4 fb 11717
4073 ddc0 a5 LDA 99 80 66 a4 fb 11721
4074 ddc2 b0 BCS 99 80 66 a4 fb 11724
4075 ddc4 c9 CMP 99 80 66 a4 fb 11726
4076 ddc6 d0 BNE 99 80 66 27 fb 11728
4077 ddc8 50 BVC 99 80 66 27 fb 11730
4078 ddce a0 LDY 99 80 66 27 fb 11733
4079 ddd0 a2 LDX 99 80 25 25 fb 11735
4080 ddd2 20 JSR 99 78 25 25 fb 11737
4081 f990 a2 LDX 99 78 25 25 f9 11743
4082 f992 a9 LDA 99 55 25 25 f9 11745
4083 f994 85 STA ff 55 25 a5 f9 11747
4084 f996 ea NOP ff 55 25 a5 f9 11750
4085 f997 24 BIT ff 55 25 a5 f9 11752
4086 f999 38 SEC ff 55 25 e5 f9 11755
4087 f99a a9 LDA ff 55 25 e5 f9 11757
4088 f99c 60 RTS 01 55 25 65 f9 11759
4089 ddd5 95 STA 01 55 25 65 fb 11765
4090 ddd7 56 LSR 01 55 25 65 fb 11769
4091 ddd9 b5 LDA 01 55 25 67 fb 11775
4092 dddb 20 JSR 00 55 25 67 fb 11779
4093 f99d 90 BCC 00 55 25 67 f9 11785
4094 f99f d0 BNE 00 55 25 67 f9 11787
4095 f9a1 30 BMI 00 55 25 67 f9 11789
4096 f9a3 50 BVC 00 55 25 67 f9 11791
4097 f9a5 c9 CMP 00 55 25 67 f9 11793
4098 f9a7 d0 BNE 00 55 25 67 f9 11795
4099 f9a9 b8 CLV 00 55 25 67 f9 11797
4100 f9aa a9 LDA 00 55 25 27 f9 11799
4101 f9ac 60 RTS aa 55 25 a5 f9 11801
4102 ddde c8 INY aa 55 25 a5 fb 11807
4103 dddf 95 STA aa 55 26 25 fb 11809
4104 dde1 56 LSR aa 55 26 25 fb 11813
4105 dde3 b5 LDA aa 55 26 24 fb 11819
4106 dde5 20 JSR 55 55 26 24 fb 11823
4107 f9ad b0 BCS 55 55 26 24 f9 11829
4108 f9af f0 BEQ 55 55 26 24 f9 11831
4109 f9b1 30 BMI 55 55 26 24 f9 11833
4110 f9b3 70 BVS 55 55 26 24 f9 11835
4111 f9b5 c9 CMP 55 55 26 24 f9 11837
4112 f9b7 d0 BNE 55 55 26 27 f9 11839
4113 f9b9 60 RTS 55 55 26 27 f9 11841
4114 dde8 c8 INY 55 55 26 27 fb 11847
4115 dde9 20 JSR 55 55 27 25 fb 11849
4116 f9bd 24 BIT 55 55 27 25 f9 11855
4117 f9bf 38 SEC 55 55 27 e5 f9 11858
4118 f9c0 a9 LDA 55 55 27 e5 f9 11860
4119 f9c2 60 RTS 80 55 27 e5 f9 11862
4120 ddec 95 STA 80 55 27 e5 fb 11868
4121 ddee 16 ASL 80 55 27 e5 fb 11872
4122 ddf0 b5 LDA 80 55 27 67 fb 11878
4123 ddf2 20 JSR 00 55 27 67 fb 11882
4124 f9c3 90 BCC 00 55 27 67 f9 11888
4125 f9c5 d0 BNE 00 55 27 67 f9 11890
4126 f9c7 30 BMI 00 55 27 67 f9 11892
4127 f9c9 50 BVC 00 55 27 67 f9 11894
4128 f9cb c9 CMP 00 55 27 67 f9 11896
4129 f9cd d0 BNE 00 55 27 67 f9 11898
4130 f9cf b8 CLV 00 55 27 67 f9 11900
4131 f9d0 a9 LDA 00 55 27 27 f9 11902
4132 f9d2 38 SEC 55 55 27 25 f9 11904
4133 f9d3 60 RTS 55 55 27 25 f9 11906
4134 ddf5 c8 INY 55 55 27 25 fb 11912
4135 ddf6 95 STA 55 55 28 25 fb 11914
4136 ddf8 16 ASL 55 55 28 25 fb 11918
4137 ddfa b5 LDA 55 55 28 a4 fb 11924
4138 ddfc 20 JSR aa 55 28 a4 fb 11928
4139 f9d4 b0 BCS aa 55 28 a4 f9 11934
4140 f9d6 f0 BEQ aa 55 28 a4 f9 11936
4141 f9d8 10 BPL aa 55 28 a4 f9 11938
4142 f9da 70 BVS aa 55 28 a4 f9 11940
4143 f9dc c9 CMP aa 55 28 a4 f9 11942
4144 f9de d0 BNE aa 55 28 27 f9 11944
4145 f9e0 60 RTS aa 55 28 27 f9 11946
4146 ddff c8 INY aa 55 28 27 fb 11952
4147 de00 20 JSR aa 55 29 25 fb 11954
4148 f9e4 24 BIT aa 55 29 25 f9 11960
4149 f9e6 38 SEC aa 55 29 e5 f9 11963
4150 f9e7 a9 LDA aa 55 29 e5 f9 11965
4151 f9e9 60 RTS 01 55 29 65 f9 11967
4152 de03 95 STA 01 55 29 65 fb 11973
4153 de05 76 ROR 01 55 29 65 fb 11977
4154 de07 b5 LDA 01 55 29 e5 fb 11983
4155 de09 20 JSR 80 55 29 e5 fb 11987
4156 f9ea 90 BCC 80 55 29 e5 f9 11993
4157 f9ec f0 BEQ 80 55 29 e5 f9 11995
4158 f9ee 10 BPL 80 55 29 e5 f9 11997
4159 f9f0 50 BVC 80 55 29 e5 f9 11999
4160 f9f2 c9 CMP 80 55 29 e5 f9 12001
4161 f9f4 d0 BNE 80 55 29 67 f9 12003
4162 f9f6 b8 CLV 80 55 29 67 f9 12005
4163 f9f7 18 CLC 80 55 29 27 f9 12007
4164 f9f8 a9 LDA 80 55 29 26 f9 12009
4165 f9fa 60 RTS 55 55 29 24 f9 12011
4166 de0c c8 INY 55 55 29 24 fb 12017
4167 de0d 95 STA 55 55 2a 24 fb 12019
4168 de0f 76 ROR 55 55 2a 24 fb 12023
4169 de11 b5 LDA 55 55 2a 25 fb 12029
4170 de13 20 JSR 2a 55 2a 25 fb 12033
4171 f9fb 90 BCC 2a 55 2a 25 f9 12039
4172 f9fd f0 BEQ 2a 55 2a 25 f9 12041
4173 f9ff 30 BMI 2a 55 2a 25 f9 12043
4174 fa01 70 BVS 2a 55 2a 25 f9 12045
4175 fa03 c9 CMP 2a 55 2a 25 f9 12047
4176 fa05 d0 BNE 2a 55 2a 27 f9 12049
4177 fa07 60 RTS 2a 55 2a 27 f9 12051
4178 de16 c8 INY 2a 55 2a 27 fb 12057
4179 de17 20 JSR 2a 55 2b 25 fb 12059
4180 fa0a 24 BIT 2a 55 2b 25 f9 12065
4181 fa0c 38 SEC 2a 55 2b e5 f9 12068
4182 fa0d a9 LDA 2a 55 2b e5 f9 12070
4183 fa0f 60 RTS 80 55 2b e5 f9 12072
4184 de1a 95 STA 80 55 2b e5 fb 12078
4185 de1c 36 ROL 80 55 2b e5 fb 12082
4186 de1e b5 LDA 80 55 2b 65 fb 12088
4187 de20 20 JSR 01 55 2b 65 fb 12092
4188 fa10 90 BCC 01 55 2b 65 f9 12098
4189 fa12 f0 BEQ 01 55 2b 65 f9 12100
4190 fa14 30 BMI 01 55 2b 65 f9 12102
4191 fa16 50 BVC 01 55 2b 65 f9 12104
4192 fa18 c9 CMP 01 55 2b 65 f9 12106
4193 fa1a d0 BNE 01 55 2b 67 f9 12108
4194 fa1c b8 CLV 01 55 2b 67 f9 12110
4195 fa1d 18 CLC 01 55 2b 27 f9 12112
4196 fa1e a9 LDA 01 55 2b 26 f9 12114
4197 fa20 60 RTS 55 55 2b 24 f9 12116
4198 de23 c8 INY 55 55 2b 24 fb 12122
4199 de24 95 STA 55 55 2c 24 fb 12124
4200 de26 36 ROL 55 55 2c 24 fb 12128
4201 de28 b5 LDA 55 55 2c a4 fb 12134
4202 de2a 20 JSR aa 55 2c a4 fb 12138
4203 fa21 b0 BCS aa 55 2c a4 f9 12144
4204 fa23 f0 BEQ aa 55 2c a4 f9 12146
4205 fa25 10 BPL aa 55 2c a4 f9 12148
4206 fa27 70 BVS aa 55 2c a4 f9 12150
4207 fa29 c9 CMP aa 55 2c a4 f9 12152
4208 fa2b d0 BNE aa 55 2c 27 f9 12154
4209 fa2d 60 RTS aa 55 2c 27 f9 12156
4210 de2d a9 LDA aa 55 2c 27 fb 12162
4211 de2f 95 STA ff 55 2c a5 fb 12164
4212 de31 85 STA ff 55 2c a5 fb 12168
4213 de33 24 BIT ff 55 2c a5 fb 12171
4214 de35 38 SEC ff 55 2c e5 fb 12174
4215 de36 f6 INC ff 55 2c e5 fb 12176
4216 de38 d0 BNE ff 55 2c 67 fb 12182
4217 de3a 30 BMI ff 55 2c 67 fb 12184
4218 de3c 50 BVC ff 55 2c 67 fb 12186
4219 de3e 90 BCC ff 55 2c 67 fb 12188
4220 de40 b5 LDA ff 55 2c 67 fb 12190
4221 de42 c9 CMP 00 55 2c 67 fb 12194
4222 de44 f0 BEQ 00 55 2c 67 fb 12196
4223 de4a a9 LDA 00 55 2c 67 fb 12199
4224 de4c 95 STA 7f 55 2c 65 fb 12201
4225 de4e b8 CLV 7f 55 2c 65 fb 12205
4226 de4f 18 CLC 7f 55 2c 25 fb 12207
4227 de50 f6 INC 7f 55 2c 24 fb 12209
4228 de52 f0 BEQ 7f 55 2c a4 fb 12215
4229 de54 10 BPL 7f 55 2c a4 fb 12217
4230 de56 70 BVS 7f 55 2c a4 fb 12219
4231 de58 b0 BCS 7f 55 2c a4 fb 12221
4232 de5a b5 LDA 7f 55 2c a4 fb 12223
4233 de5c c9 CMP 80 55 2c a4 fb 12227
4234 de5e f0 BEQ 80 55 2c 27 fb 12229
4235 de64 a9 LDA 80 55 2c 27 fb 12232
4236 de66 95 STA 00 55 2c 27 fb 12234
4237 de68 24 BIT 00 55 2c 27 fb 12238
4238 de6a 38 SEC 00 55 2c e7 fb 12241
4239 de6b d6 DEC 00 55 2c e7 fb 12243
4240 de6d f0 BEQ 00 55 2c e5 fb 12249
4241 de6f 10 BPL 00 55 2c e5 fb 12251
4242 de71 50 BVC 00 55 2c e5 fb 12253
4243 de73 90 BCC 00 55 2c e5 fb 12255
4244 de75 b5 LDA 00 55 2c e5 fb 12257
4245 de77 c9 CMP ff 55 2c e5 fb 12261
4246 de79 f0 BEQ ff 55 2c 67 fb 12263
4247 de7f a9 LDA ff 55 2c 67 fb 12266
4248 de81 95 STA 80 55 2c e5 fb 12268
4249 de83 b8 CLV 80 55 2c e5 fb 12272
4250 de84 18 CLC 80 55 2c a5 fb 12274
4251 de85 d6 DEC 80 55 2c a4 fb 12276
4252 de87 f0 BEQ 80 55 2c 24 fb 12282
4253 de89 30 BMI 80 55 2c 24 fb 12284
4254 de8b 70 BVS 80 55 2c 24 fb 12286
4255 de8d b0 BCS 80 55 2c 24 fb 12288
4256 de8f b5 LDA 80 55 2c 24 fb 12290
4257 de91 c9 CMP 7f 55 2c 24 fb 12294
4258 de93 f0 BEQ 7f 55 2c 27 fb 12296
4259 de99 a9 LDA 7f 55 2c 27 fb 12299
4260 de9b 95 STA 01 55 2c 25 fb 12301
4261 de9d d6 DEC 01 55 2c 25 fb 12305
4262 de9f f0 BEQ 01 55 2c 27 fb 12311
4263 dea5 a9 LDA 01 55 2c 27 fb 12314
4264 dea7 85 STA 33 55 2c 25 fb 12316
4265 dea9 a9 LDA 33 55 2c 25 fb 12319
4266 deab a0 LDY 44 55 2c 25 fb 12321
4267 dead a2 LDX 44 55 78 25 fb 12323
4268 deaf 38 SEC 44 00 78 27 fb 12325
4269 deb0 24 BIT 44 00 78 27 fb 12327
4270 deb2 b6 LDX 44 00 78 e5 fb 12330
4271 deb4 90 BCC 44 33 78 65 fb 12334
4272 deb6 50 BVC 44 33 78 65 fb 12336
4273 deb8 30 BMI 44 33 78 65 fb 12338
4274 deba f0 BEQ 44 33 78 65 fb 12340
4275 debc e0 CPX 44 33 78 65 fb 12342
4276 debe d0 BNE 44 33 78 67 fb 12344
4277 dec0 c0 CPY 44 33 78 67 fb 12346
4278 dec2 d0 BNE 44 33 78 67 fb 12348
4279 dec4 c9 CMP 44 33 78 67 fb 12350
4280 dec6 f0 BEQ 44 33 78 67 fb 12352
4281 decc a9 LDA 44 33 78 67 fb 12355
4282 dece 85 STA 97 33 78 e5 fb 12357
4283 ded0 a9 LDA 97 33 78 e5 fb 12360
4284 ded2 a0 LDY 47 33 78 65 fb 12362
4285 ded4 a2 LDX 47 33 ff e5 fb 12364
4286 ded6 18 CLC 47 00 ff 67 fb 12366
4287 ded7 b8 CLV 47 00 ff 66 fb 12368
4288 ded8 b6 LDX 47 00 ff 26 fb 12370
4289 deda b0 BCS 47 97 ff a4 fb 12374
4290 dedc 70 BVS 47 97 ff a4 fb 12376
4291 dede 10 BPL 47 97 ff a4 fb 12378
4292 dee0 f0 BEQ 47 97 ff a4 fb 12380
4293 dee2 e0 CPX 47 97 ff a4 fb 12382
4294 dee4 d0 BNE 47 97 ff 27 fb 12384
4295 dee6 c0 CPY 47 97 ff 27 fb 12386
4296 dee8 d0 BNE 47 97 ff 27 fb 12388
4297 deea c9 CMP 47 97 ff 27 fb 12390
4298 deec f0 BEQ 47 97 ff 27 fb 12392
4299 def2 a9 LDA 47 97 ff 27 fb 12395
4300 def4 85 STA 00 97 ff 27 fb 12397
4301 def6 a9 LDA 00 97 ff 27 fb 12400
4302 def8 a0 LDY 47 97 ff 25 fb 12402
4303 defa a2 LDX 47 97 ff a5 fb 12404
4304 defc 18 CLC 47 69 ff 25 fb 12406
4305 defd b8 CLV 47 69 ff 24 fb 12408
4306 defe 96 STX 47 69 ff 24 fb 12410
4307 df00 b0 BCS 47 69 ff 24 fb 12414
4308 df02 70 BVS 47 69 ff 24 fb 12416
4309 df04 30 BMI 47 69 ff 24 fb 12418
4310 df06 f0 BEQ 47 69 ff 24 fb 12420
4311 df08 e0 CPX 47 69 ff 24 fb 12422
4312 df0a d0 BNE 47 69 ff 27 fb 12424
4313 df0c c0 CPY 47 69 ff 27 fb 12426
4314 df0e d0 BNE 47 69 ff 27 fb 12428
4315 df10 c9 CMP 47 69 ff 27 fb 12430
4316 df12 d0 BNE 47 69 ff 27 fb 12432
4317 df14 a5 LDA 47 69 ff 27 fb 12434
4318 df16 c9 CMP 69 69 ff 25 fb 12437
4319 df18 f0 BEQ 69 69 ff 27 fb 12439
4320 df1e a9 LDA 69 69 ff 27 fb 12442
4321 df20 85 STA f5 69 ff a5 fb 12444
4322 df22 a9 LDA f5 69 ff a5 fb 12447
4323 df24 a0 LDY 47 69 ff 25 fb 12449
4324 df26 24 BIT 47 69 4f 25 fb 12451
4325 df28 a2 LDX 47 69 4f e5 fb 12454
4326 df2a 38 SEC 47 00 4f 67 fb 12456
4327 df2b 96 STX 47 00 4f 67 fb 12458
4328 df2d 90 BCC 47 00 4f 67 fb 12462
4329 df2f 50 BVC 47 00 4f 67 fb 12464
4330 df31 30 BMI 47 00 4f 67 fb 12466
4331 df33 d0 BNE 47 00 4f 67 fb 12468
4332 df35 e0 CPX 47 00 4f 67 fb 12470
4333 df37 d0 BNE 47 00 4f 67 fb 12472
4334 df39 c0 CPY 47 00 4f 67 fb 12474
4335 df3b d0 BNE 47 00 4f 67 fb 12476
4336 df3d c9 CMP 47 00 4f 67 fb 12478
4337 df3f d0 BNE 47 00 4f 67 fb 12480
4338 df41 a5 LDA 47 00 4f 67 fb 12482
4339 df43 f0 BEQ 00 00 4f 67 fb 12485
4340 df49 60 RTS 00 00 4f 67 fb 12488
4341 c62c 20 JSR 00 00 4f 67 fd 12494
4342 e1aa a9 LDA 00 00 4f 67 fb 12500
4343 e1ac 85 STA ff 00 4f e5 fb 12502
4344 e1ae a9 LDA ff 00 4f e5 fb 12505
4345 e1b0 8d STA aa 00 4f e5 fb 12507
4346 e1b3 a9 LDA aa 00 4f e5 fb 12511
4347 e1b5 8d STA bb 00 4f e5 fb 12513
4348 e1b8 a2 LDX bb 00 4f e5 fb 12517
4349 e1ba a9 LDA bb 00 4f 67 fb 12519
4350 e1bc 24 BIT 66 00 4f 65 fb 12521
4351 e1be 38 SEC 66 00 4f e5 fb 12524
4352 e1bf a0 LDY 66 00 4f e5 fb 12526
4353 e1c1 bc LDY 66 00 00 67 fb 12528
4354 e1c4 10 BPL 66 00 aa e5 fb 12532
4355 e1c6 f0 BEQ 66 00 aa e5 fb 12534
4356 e1c8 50 BVC 66 00 aa e5 fb 12536
4357 e1ca 90 BCC 66 00 aa e5 fb 12538
4358 e1cc c9 CMP 66 00 aa e5 fb 12540
4359 e1ce d0 BNE 66 00 aa 67 fb 12542
4360 e1d0 e0 CPX 66 00 aa 67 fb 12544
4361 e1d2 d0 BNE 66 00 aa 67 fb 12546
4362 e1d4 c0 CPY 66 00 aa 67 fb 12548
4363 e1d6 f0 BEQ 66 00 aa 67 fb 12550
4364 e1dc a2 LDX 66 00 aa 67 fb 12553
4365 e1de a9 LDA 66 8a aa e5 fb 12555
4366 e1e0 b8 CLV 66 8a aa 65 fb 12557
4367 e1e1 18 CLC 66 8a aa 25 fb 12559
4368 e1e2 a0 LDY 66 8a aa 24 fb 12561
4369 e1e4 bc LDY 66 8a 00 26 fb 12563
4370 e1e7 10 BPL 66 8a bb a4 fb 12568
4371 e1e9 f0 BEQ 66 8a bb a4 fb 12570
4372 e1eb 70 BVS 66 8a bb a4 fb 12572
4373 e1ed b0 BCS 66 8a bb a4 fb 12574
4374 e1ef c0 CPY 66 8a bb a4 fb 12576
4375 e1f1 d0 BNE 66 8a bb 27 fb 12578
4376 e1f3 c9 CMP 66 8a bb 27 fb 12580
4377 e1f5 d0 BNE 66 8a bb 27 fb 12582
4378 e1f7 e0 CPX 66 8a bb 27 fb 12584
4379 e1f9 f0 BEQ 66 8a bb 27 fb 12586
4380 e1ff a0 LDY 66 8a bb 27 fb 12589
4381 e201 a9 LDA 66 8a 53 25 fb 12591
4382 e203 a2 LDX aa 8a 53 a5 fb 12593
4383 e205 8d STA aa 78 53 25 fb 12595
4384 e208 20 JSR aa 78 53 25 fb 12599
4385 f7b6 18 CLC aa 78 53 25 f9 12605
4386 f7b7 a9 LDA aa 78 53 24 f9 12607
4387 f7b9 85 STA ff 78 53 a4 f9 12609
4388 f7bb 24 BIT ff 78 53 a4 f9 12612
4389 f7bd a9 LDA ff 78 53 e4 f9 12615
4390 f7bf 60 RTS 55 78 53 64 f9 12617
4391 e20b 1d ORA 55 78 53 64 fb 12623
4392 e20e 20 JSR ff 78 53 e4 fb 12627
4393 f7c0 b0 BCS ff 78 53 e4 f9 12633
4394 f7c2 10 BPL ff 78 53 e4 f9 12635
4395 f7c4 c9 CMP ff 78 53 e4 f9 12637
4396 f7c6 d0 BNE ff 78 53 67 f9 12639
4397 f7c8 50 BVC ff 78 53 67 f9 12641
4398 f7ca 60 RTS ff 78 53 67 f9 12643
4399 e211 c8 INY ff 78 53 67 fb 12649
4400 e212 a9 LDA ff 78 54 65 fb 12651
4401 e214 8d STA 00 78 54 67 fb 12653
4402 e217 20 JSR 00 78 54 67 fb 12657
4403 f7ce 38 SEC 00 78 54 67 f9 12663
4404 f7cf b8 CLV 00 78 54 67 f9 12665
4405 f7d0 a9 LDA 00 78 54 27 f9 12667
4406 f7d2 60 RTS 00 78 54 27 f9 12669
4407 e21a 1d ORA 00 78 54 27 fb 12675
4408 e21d 20 JSR 00 78 54 27 fb 12679
4409 f7d3 d0 BNE 00 78 54 27 f9 12685
4410 f7d5 70 BVS 00 78 54 27 f9 12687
4411 f7d7 90 BCC 00 78 54 27 f9 12689
4412 f7d9 30 BMI 00 78 54 27 f9 12691
4413 f7db 60 RTS 00 78 54 27 f9 12693
4414 e220 c8 INY 00 78 54 27 fb 12699
4415 e221 a9 LDA 00 78 55 25 fb 12701
4416 e223 8d STA aa 78 55 a5 fb 12703
4417 e226 20 JSR aa 78 55 a5 fb 12707
4418 f7df 18 CLC aa 78 55 a5 f9 12713
4419 f7e0 24 BIT aa 78 55 a4 f9 12715
4420 f7e2 a9 LDA aa 78 55 e4 f9 12718
4421 f7e4 60 RTS 55 78 55 64 f9 12720
4422 e229 3d AND 55 78 55 64 fb 12726
4423 e22c 20 JSR 00 78 55 66 fb 12730
4424 f7e5 d0 BNE 00 78 55 66 f9 12736
4425 f7e7 50 BVC 00 78 55 66 f9 12738
4426 f7e9 b0 BCS 00 78 55 66 f9 12740
4427 f7eb 30 BMI 00 78 55 66 f9 12742
4428 f7ed 60 RTS 00 78 55 66 f9 12744
4429 e22f c8 INY 00 78 55 66 fb 12750
4430 e230 a9 LDA 00 78 56 64 fb 12752
4431 e232 8d STA ef 78 56 e4 fb 12754
4432 e235 20 JSR ef 78 56 e4 fb 12758
4433 f7f1 38 SEC ef 78 56 e4 f9 12764
4434 f7f2 b8 CLV ef 78 56 e5 f9 12766
4435 f7f3 a9 LDA ef 78 56 a5 f9 12768
4436 f7f5 60 RTS f8 78 56 a5 f9 12770
4437 e238 3d AND f8 78 56 a5 fb 12776
4438 e23b 20 JSR e8 78 56 a5 fb 12780
4439 f7f6 90 BCC e8 78 56 a5 f9 12786
4440 f7f8 10 BPL e8 78 56 a5 f9 12788
4441 f7fa c9 CMP e8 78 56 a5 f9 12790
4442 f7fc d0 BNE e8 78 56 27 f9 12792
4443 f7fe 70 BVS e8 78 56 27 f9 12794
4444 f800 60 RTS e8 78 56 27 f9 12796
4445 e23e c8 INY e8 78 56 27 fb 12802
4446 e23f a9 LDA e8 78 57 25 fb 12804
4447 e241 8d STA aa 78 57 a5 fb 12806
4448 e244 20 JSR aa 78 57 a5 fb 12810
4449 f804 18 CLC aa 78 57 a5 f9 12816
4450 f805 24 BIT aa 78 57 a4 f9 12818
4451 f807 a9 LDA aa 78 57 e4 f9 12821
4452 f809 60 RTS 5f 78 57 64 f9 12823
4453 e247 5d EOR 5f 78 57 64 fb 12829
4454 e24a 20 JSR f5 78 57 e4 fb 12833
4455 f80a b0 BCS f5 78 57 e4 f9 12839
4456 f80c 10 BPL f5 78 57 e4 f9 12841
4457 f80e c9 CMP f5 78 57 e4 f9 12843
4458 f810 d0 BNE f5 78 57 67 f9 12845
4459 f812 50 BVC f5 78 57 67 f9 12847
4460 f814 60 RTS f5 78 57 67 f9 12849
4461 e24d c8 INY f5 78 57 67 fb 12855
4462 e24e a9 LDA f5 78 58 65 fb 12857
4463 e250 8d STA 70 78 58 65 fb 12859
4464 e253 20 JSR 70 78 58 65 fb 12863
4465 f818 38 SEC 70 78 58 65 f9 12869
4466 f819 b8 CLV 70 78 58 65 f9 12871
4467 f81a a9 LDA 70 78 58 25 f9 12873
4468 f81c 60 RTS 70 78 58 25 f9 12875
4469 e256 5d EOR 70 78 58 25 fb 12881
4470 e259 20 JSR 00 78 58 27 fb 12885
4471 f81d d0 BNE 00 78 58 27 f9 12891
4472 f81f 70 BVS 00 78 58 27 f9 12893
4473 f821 90 BCC 00 78 58 27 f9 12895
4474 f823 30 BMI 00 78 58 27 f9 12897
4475 f825 60 RTS 00 78 58 27 f9 12899
4476 e25c c8 INY 00 78 58 27 fb 12905
4477 e25d a9 LDA 00 78 59 25 fb 12907
4478 e25f 8d STA 69 78 59 25 fb 12909
4479 e262 20 JSR 69 78 59 25 fb 12913
4480 f829 18 CLC 69 78 59 25 f9 12919
4481 f82a 24 BIT 69 78 59 24 f9 12921
4482 f82c a9 LDA 69 78 59 e4 f9 12924
4483 f82e 60 RTS 00 78 59 66 f9 12926
4484 e265 7d ADC 00 78 59 66 fb 12932
4485 e268 20 JSR 69 78 59 24 fb 12936
4486 f82f 30 BMI 69 78 59 24 f9 12942
4487 f831 b0 BCS 69 78 59 24 f9 12944
4488 f833 c9 CMP 69 78 59 24 f9 12946
4489 f835 d0 BNE 69 78 59 27 f9 12948
4490 f837 70 BVS 69 78 59 27 f9 12950
4491 f839 60 RTS 69 78 59 27 f9 12952
4492 e26b c8 INY 69 78 59 27 fb 12958
4493 e26c 20 JSR 69 78 5a 25 fb 12960
4494 f83d 38 SEC 69 78 5a 25 f9 12966
4495 f83e 24 BIT 69 78 5a 25 f9 12968
4496 f840 a9 LDA 69 78 5a e5 f9 12971
4497 f842 60 RTS 00 78 5a 67 f9 12973
4498 e26f 7d ADC 00 78 5a 67 fb 12979
4499 e272 20 JSR 6a 78 5a 24 fb 12983
4500 f843 30 BMI 6a 78 5a 24 f9 12989
4501 f845 b0 BCS 6a 78 5a 24 f9 12991
4502 f847 c9 CMP 6a 78 5a 24 f9 12993
4503 f849 d0 BNE 6a 78 5a 27 f9 12995
4504 f84b 70 BVS 6a 78 5a 27 f9 12997
4505 f84d 60 RTS 6a 78 5a 27 f9 12999
4506 e275 c8 INY 6a 78 5a 27 fb 13005
4507 e276 a9 LDA 6a 78 5b 25 fb 13007
4508 e278 8d STA 7f 78 5b 25 fb 13009
4509 e27b 20 JSR 7f 78 5b 25 fb 13013
4510 f851 38 SEC 7f 78 5b 25 f9 13019
4511 f852 b8 CLV 7f 78 5b 25 f9 13021
4512 f853 a9 LDA 7f 78 5b 25 f9 13023
4513 f855 60 RTS 7f 78 5b 25 f9 13025
4514 e27e 7d ADC 7f 78 5b 25 fb 13031
4515 e281 20 JSR ff 78 5b e4 fb 13035
4516 f856 10 BPL ff 78 5b e4 f9 13041
4517 f858 b0 BCS ff 78 5b e4 f9 13043
4518 f85a c9 CMP ff 78 5b e4 f9 13045
4519 f85c d0 BNE ff 78 5b 67 f9 13047
4520 f85e 50 BVC ff 78 5b 67 f9 13049
4521 f860 60 RTS ff 78 5b 67 f9 13051
4522 e284 c8 INY ff 78 5b 67 fb 13057
4523 e285 a9 LDA ff 78 5c 65 fb 13059
4524 e287 8d STA 80 78 5c e5 fb 13061
4525 e28a 20 JSR 80 78 5c e5 fb 13065
4526 f864 18 CLC 80 78 5c e5 f9 13071
4527 f865 24 BIT 80 78 5c e4 f9 13073
4528 f867 a9 LDA 80 78 5c e4 f9 13076
4529 f869 60 RTS 7f 78 5c 64 f9 13078
4530 e28d 7d ADC 7f 78 5c 64 fb 13084
4531 e290 20 JSR ff 78 5c a4 fb 13088
4532 f86a 10 BPL ff 78 5c a4 f9 13094
4533 f86c b0 BCS ff 78 5c a4 f9 13096
4534 f86e c9 CMP ff 78 5c a4 f9 13098
4535 f870 d0 BNE ff 78 5c 27 f9 13100
4536 f872 70 BVS ff 78 5c 27 f9 13102
4537 f874 60 RTS ff 78 5c 27 f9 13104
4538 e293 c8 INY ff 78 5c 27 fb 13110
4539 e294 20 JSR ff 78 5d 25 fb 13112
4540 f878 38 SEC ff 78 5d 25 f9 13118
4541 f879 b8 CLV ff 78 5d 25 f9 13120
4542 f87a a9 LDA ff 78 5d 25 f9 13122
4543 f87c 60 RTS 7f 78 5d 25 f9 13124
4544 e297 7d ADC 7f 78 5d 25 fb 13130
4545 e29a 20 JSR 00 78 5d 27 fb 13134
4546 f87d d0 BNE 00 78 5d 27 f9 13140
4547 f87f 30 BMI 00 78 5d 27 f9 13142
4548 f881 70 BVS 00 78 5d 27 f9 13144
4549 f883 90 BCC 00 78 5d 27 f9 13146
4550 f885 60 RTS 00 78 5d 27 f9 13148
4551 e29d c8 INY 00 78 5d 27 fb 13154
4552 e29e a9 LDA 00 78 5e 25 fb 13156
4553 e2a0 8d STA 40 78 5e 25 fb 13158
4554 e2a3 20 JSR 40 78 5e 25 fb 13162
4555 f889 24 BIT 40 78 5e 25 f9 13168
4556 f88b a9 LDA 40 78 5e e5 f9 13171
4557 f88d 60 RTS 40 78 5e 65 f9 13173
4558 e2a6 dd CMP 40 78 5e 65 fb 13179
4559 e2a9 20 JSR 40 78 5e 67 fb 13183
4560 f88e 30 BMI 40 78 5e 67 f9 13189
4561 f890 90 BCC 40 78 5e 67 f9 13191
4562 f892 d0 BNE 40 78 5e 67 f9 13193
4563 f894 50 BVC 40 78 5e 67 f9 13195
4564 f896 60 RTS 40 78 5e 67 f9 13197
4565 e2ac c8 INY 40 78 5e 67 fb 13203
4566 e2ad 48 PHA 40 78 5f 65 fb 13205
4567 e2ae a9 LDA 40 78 5f 65 fa 13208
4568 e2b0 8d STA 3f 78 5f 65 fa 13210
4569 e2b3 68 PLA 3f 78 5f 65 fa 13214
4570 e2b4 20 JSR 40 78 5f 65 fb 13218
4571 f89a b8 CLV 40 78 5f 65 f9 13224
4572 f89b 60 RTS 40 78 5f 25 f9 13226
4573 e2b7 dd CMP 40 78 5f 25 fb 13232
4574 e2ba 20 JSR 40 78 5f 25 fb 13236
4575 f89c f0 BEQ 40 78 5f 25 f9 13242
4576 f89e 30 BMI 40 78 5f 25 f9 13244
4577 f8a0 90 BCC 40 78 5f 25 f9 13246
4578 f8a2 70 BVS 40 78 5f 25 f9 13248
4579 f8a4 60 RTS 40 78 5f 25 f9 13250
4580 e2bd c8 INY 40 78 5f 25 fb 13256
4581 e2be 48 PHA 40 78 60 25 fb 13258
4582 e2bf a9 LDA 40 78 60 25 fa 13261
4583 e2c1 8d STA 41 78 60 25 fa 13263
4584 e2c4 68 PLA 41 78 60 25 fa 13267
4585 e2c5 dd CMP 40 78 60 25 fb 13271
4586 e2c8 20 JSR 40 78 60 a4 fb 13275
4587 f8a8 f0 BEQ 40 78 60 a4 f9 13281
4588 f8aa 10 BPL 40 78 60 a4 f9 13283
4589 f8ac 10 BPL 40 78 60 a4 f9 13285
4590 f8ae 60 RTS 40 78 60 a4 f9 13287
4591 e2cb c8 INY 40 78 60 a4 fb 13293
4592 e2cc 48 PHA 40 78 61 24 fb 13295
4593 e2cd a9 LDA 40 78 61 24 fa 13298
4594 e2cf 8d STA 00 78 61 26 fa 13300
4595 e2d2 68 PLA 00 78 61 26 fa 13304
4596 e2d3 20 JSR 40 78 61 24 fb 13308
4597 f8b2 a9 LDA 40 78 61 24 f9 13314
4598 f8b4 60 RTS 80 78 61 a4 f9 13316
4599 e2d6 dd CMP 80 78 61 a4 fb 13322
4600 e2d9 20 JSR 80 78 61 a5 fb 13326
4601 f8b5 f0 BEQ 80 78 61 a5 f9 13332
4602 f8b7 10 BPL 80 78 61 a5 f9 13334
4603 f8b9 90 BCC 80 78 61 a5 f9 13336
4604 f8bb 60 RTS 80 78 61 a5 f9 13338
4605 e2dc c8 INY 80 78 61 a5 fb 13344
4606 e2dd 48 PHA 80 78 62 25 fb 13346
4607 e2de a9 LDA 80 78 62 25 fa 13349
4608 e2e0 8d STA 80 78 62 a5 fa 13351
4609 e2e3 68 PLA 80 78 62 a5 fa 13355
4610 e2e4 dd CMP 80 78 62 a5 fb 13359
4611 e2e7 20 JSR 80 78 62 27 fb 13363
4612 f8bf d0 BNE 80 78 62 27 f9 13369
4613 f8c1 30 BMI 80 78 62 27 f9 13371
4614 f8c3 90 BCC 80 78 62 27 f9 13373
4615 f8c5 60 RTS 80 78 62 27 f9 13375
4616 e2ea c8 INY 80 78 62 27 fb 13381
4617 e2eb 48 PHA 80 78 63 25 fb 13383
4618 e2ec a9 LDA 80 78 63 25 fa 13386
4619 e2ee 8d STA 81 78 63 a5 fa 13388
4620 e2f1 68 PLA 81 78 63 a5 fa 13392
4621 e2f2 dd CMP 80 78 63 a5 fb 13396
4622 e2f5 20 JSR 80 78 63 a4 fb 13400
4623 f8c9 b0 BCS 80 78 63 a4 f9 13406
4624 f8cb f0 BEQ 80 78 63 a4 f9 13408
4625 f8cd 10 BPL 80 78 63 a4 f9 13410
4626 f8cf 60 RTS 80 78 63 a4 f9 13412
4627 e2f8 c8 INY 80 78 63 a4 fb 13418
4628 e2f9 48 PHA 80 78 64 24 fb 13420
4629 e2fa a9 LDA 80 78 64 24 fa 13423
4630 e2fc 8d STA 7f 78 64 24 fa 13425
4631 e2ff 68 PLA 7f 78 64 24 fa 13429
4632 e300 dd CMP 80 78 64 a4 fb 13433
4633 e303 20 JSR 80 78 64 25 fb 13437
4634 f8d3 90 BCC 80 78 64 25 f9 13443
4635 f8d5 f0 BEQ 80 78 64 25 f9 13445
4636 f8d7 30 BMI 80 78 64 25 f9 13447
4637 f8d9 60 RTS 80 78 64 25 f9 13449
4638 e306 c8 INY 80 78 64 25 fb 13455
4639 e307 a9 LDA 80 78 65 25 fb 13457
4640 e309 8d STA 40 78 65 25 fb 13459
4641 e30c 20 JSR 40 78 65 25 fb 13463
4642 f931 24 BIT 40 78 65 25 f9 13469
4643 f933 a9 LDA 40 78 65 e5 f9 13472
4644 f935 38 SEC 40 78 65 65 f9 13474
4645 f936 60 RTS 40 78 65 65 f9 13476
4646 e30f fd SBC 40 78 65 65 fb 13482
4647 e312 20 JSR 00 78 65 27 fb 13486
4648 f937 30 BMI 00 78 65 27 f9 13492
4649 f939 90 BCC 00 78 65 27 f9 13494
4650 f93b d0 BNE 00 78 65 27 f9 13496
4651 f93d 70 BVS 00 78 65 27 f9 13498
4652 f93f c9 CMP 00 78 65 27 f9 13500
4653 f941 d0 BNE 00 78 65 27 f9 13502
4654 f943 60 RTS 00 78 65 27 f9 13504
4655 e315 c8 INY 00 78 65 27 fb 13510
4656 e316 a9 LDA 00 78 66 25 fb 13512
4657 e318 8d STA 3f 78 66 25 fb 13514
4658 e31b 20 JSR 3f 78 66 25 fb 13518
4659 f947 b8 CLV 3f 78 66 25 f9 13524
4660 f948 38 SEC 3f 78 66 25 f9 13526
4661 f949 a9 LDA 3f 78 66 25 f9 13528
4662 f94b 60 RTS 40 78 66 25 f9 13530
4663 e31e fd SBC 40 78 66 25 fb 13536
4664 e321 20 JSR 01 78 66 25 fb 13540
4665 f94c f0 BEQ 01 78 66 25 f9 13546
4666 f94e 30 BMI 01 78 66 25 f9 13548
4667 f950 90 BCC 01 78 66 25 f9 13550
4668 f952 70 BVS 01 78 66 25 f9 13552
4669 f954 c9 CMP 01 78 66 25 f9 13554
4670 f956 d0 BNE 01 78 66 27 f9 13556
4671 f958 60 RTS 01 78 66 27 f9 13558
4672 e324 c8 INY 01 78 66 27 fb 13564
4673 e325 a9 LDA 01 78 67 25 fb 13566
4674 e327 8d STA 41 78 67 25 fb 13568
4675 e32a 20 JSR 41 78 67 25 fb 13572
4676 f95c a9 LDA 41 78 67 25 f9 13578
4677 f95e 38 SEC 40 78 67 25 f9 13580
4678 f95f 24 BIT 40 78 67 25 f9 13582
4679 f961 60 RTS 40 78 67 e5 f9 13585
4680 e32d fd SBC 40 78 67 e5 fb 13591
4681 e330 20 JSR ff 78 67 a4 fb 13595
4682 f962 b0 BCS ff 78 67 a4 f9 13601
4683 f964 f0 BEQ ff 78 67 a4 f9 13603
4684 f966 10 BPL ff 78 67 a4 f9 13605
4685 f968 70 BVS ff 78 67 a4 f9 13607
4686 f96a c9 CMP ff 78 67 a4 f9 13609
4687 f96c d0 BNE ff 78 67 27 f9 13611
4688 f96e 60 RTS ff 78 67 27 f9 13613
4689 e333 c8 INY ff 78 67 27 fb 13619
4690 e334 a9 LDA ff 78 68 25 fb 13621
4691 e336 8d STA 00 78 68 27 fb 13623
4692 e339 20 JSR 00 78 68 27 fb 13627
4693 f972 18 CLC 00 78 68 27 f9 13633
4694 f973 a9 LDA 00 78 68 26 f9 13635
4695 f975 60 RTS 80 78 68 a4 f9 13637
4696 e33c fd SBC 80 78 68 a4 fb 13643
4697 e33f 20 JSR 7f 78 68 65 fb 13647
4698 f976 90 BCC 7f 78 68 65 f9 13653
4699 f978 c9 CMP 7f 78 68 65 f9 13655
4700 f97a d0 BNE 7f 78 68 67 f9 13657
4701 f97c 60 RTS 7f 78 68 67 f9 13659
4702 e342 c8 INY 7f 78 68 67 fb 13665
4703 e343 a9 LDA 7f 78 69 65 fb 13667
4704 e345 8d STA 7f 78 69 65 fb 13669
4705 e348 20 JSR 7f 78 69 65 fb 13673
4706 f980 38 SEC 7f 78 69 65 f9 13679
4707 f981 a9 LDA 7f 78 69 65 f9 13681
4708 f983 60 RTS 81 78 69 e5 f9 13683
4709 e34b fd SBC 81 78 69 e5 fb 13689
4710 e34e 20 JSR 02 78 69 65 fb 13693
4711 f984 50 BVC 02 78 69 65 f9 13699
4712 f986 90 BCC 02 78 69 65 f9 13701
4713 f988 c9 CMP 02 78 69 65 f9 13703
4714 f98a d0 BNE 02 78 69 67 f9 13705
4715 f98c 60 RTS 02 78 69 67 f9 13707
4716 e351 a9 LDA 02 78 69 67 fb 13713
4717 e353 8d STA aa 78 69 e5 fb 13715
4718 e356 a9 LDA aa 78 69 e5 fb 13719
4719 e358 8d STA bb 78 69 e5 fb 13721
4720 e35b a2 LDX bb 78 69 e5 fb 13725
4721 e35d a0 LDY bb 00 69 67 fb 13727
4722 e35f 24 BIT bb 00 66 65 fb 13729
4723 e361 38 SEC bb 00 66 e5 fb 13732
4724 e362 a9 LDA bb 00 66 e5 fb 13734
4725 e364 bd LDA 00 00 66 67 fb 13736
4726 e367 10 BPL aa 00 66 e5 fb 13740
4727 e369 f0 BEQ aa 00 66 e5 fb 13742
4728 e36b 50 BVC aa 00 66 e5 fb 13744
4729 e36d 90 BCC aa 00 66 e5 fb 13746
4730 e36f c0 CPY aa 00 66 e5 fb 13748
4731 e371 d0 BNE aa 00 66 67 fb 13750
4732 e373 e0 CPX aa 00 66 67 fb 13752
4733 e375 d0 BNE aa 00 66 67 fb 13754
4734 e377 c9 CMP aa 00 66 67 fb 13756
4735 e379 f0 BEQ aa 00 66 67 fb 13758
4736 e37f a2 LDX aa 00 66 67 fb 13761
4737 e381 a0 LDY aa 8a 66 e5 fb 13763
4738 e383 b8 CLV aa 8a 66 65 fb 13765
4739 e384 18 CLC aa 8a 66 25 fb 13767
4740 e385 a9 LDA aa 8a 66 24 fb 13769
4741 e387 bd LDA 00 8a 66 26 fb 13771
4742 e38a 10 BPL bb 8a 66 a4 fb 13776
4743 e38c f0 BEQ bb 8a 66 a4 fb 13778
4744 e38e 70 BVS bb 8a 66 a4 fb 13780
4745 e390 b0 BCS bb 8a 66 a4 fb 13782
4746 e392 c9 CMP bb 8a 66 a4 fb 13784
4747 e394 d0 BNE bb 8a 66 27 fb 13786
4748 e396 c0 CPY bb 8a 66 27 fb 13788
4749 e398 d0 BNE bb 8a 66 27 fb 13790
4750 e39a e0 CPX bb 8a 66 27 fb 13792
4751 e39c f0 BEQ bb 8a 66 27 fb 13794
4752 e3a2 24 BIT bb 8a 66 27 fb 13797
4753 e3a4 38 SEC bb 8a 66 e5 fb 13800
4754 e3a5 a9 LDA bb 8a 66 e5 fb 13802
4755 e3a7 a2 LDX 44 8a 66 65 fb 13804
4756 e3a9 9d STA 44 00 66 67 fb 13806
4757 e3ac ad LDA 44 00 66 67 fb 13811
4758 e3af 90 BCC 44 00 66 65 fb 13815
4759 e3b1 c9 CMP 44 00 66 65 fb 13817
4760 e3b3 d0 BNE 44 00 66 67 fb 13819
4761 e3b5 50 BVC 44 00 66 67 fb 13821
4762 e3b7 18 CLC 44 00 66 67 fb 13823
4763 e3b8 b8 CLV 44 00 66 66 fb 13825
4764 e3b9 a9 LDA 44 00 66 26 fb 13827
4765 e3bb a2 LDX 99 00 66 a4 fb 13829
4766 e3bd 9d STA 99 80 66 a4 fb 13831
4767 e3c0 ad LDA 99 80 66 a4 fb 13836
4768 e3c3 b0 BCS 99 80 66 a4 fb 13840
4769 e3c5 c9 CMP 99 80 66 a4 fb 13842
4770 e3c7 d0 BNE 99 80 66 27 fb 13844
4771 e3c9 50 BVC 99 80 66 27 fb 13846
4772 e3cf a0 LDY 99 80 66 27 fb 13849
4773 e3d1 a2 LDX 99 80 6d 25 fb 13851
4774 e3d3 20 JSR 99 6d 6d 25 fb 13853
4775 f990 a2 LDX 99 6d 6d 25 f9 13859
4776 f992 a9 LDA 99 55 6d 25 f9 13861
4777 f994 85 STA ff 55 6d a5 f9 13863
4778 f996 ea NOP ff 55 6d a5 f9 13866
4779 f997 24 BIT ff 55 6d a5 f9 13868
4780 f999 38 SEC ff 55 6d e5 f9 13871
4781 f99a a9 LDA ff 55 6d e5 f9 13873
4782 f99c 60 RTS 01 55 6d 65 f9 13875
4783 e3d6 9d STA 01 55 6d 65 fb 13881
4784 e3d9 5e LSR 01 55 6d 65 fb 13886
4785 e3dc bd LDA 01 55 6d 67 fb 13893
4786 e3df 20 JSR 00 55 6d 67 fb 13897
4787 f99d 90 BCC 00 55 6d 67 f9 13903
4788 f99f d0 BNE 00 55 6d 67 f9 13905
4789 f9a1 30 BMI 00 55 6d 67 f9 13907
4790 f9a3 50 BVC 00 55 6d 67 f9 13909
4791 f9a5 c9 CMP 00 55 6d 67 f9 13911
4792 f9a7 d0 BNE 00 55 6d 67 f9 13913
4793 f9a9 b8 CLV 00 55 6d 67 f9 13915
4794 f9aa a9 LDA 00 55 6d 27 f9 13917
4795 f9ac 60 RTS aa 55 6d a5 f9 13919
4796 e3e2 c8 INY aa 55 6d a5 fb 13925
4797 e3e3 9d STA aa 55 6e 25 fb 13927
4798 e3e6 5e LSR aa 55 6e 25 fb 13932
4799 e3e9 bd LDA aa 55 6e 24 fb 13939
4800 e3ec 20 JSR 55 55 6e 24 fb 13943
4801 f9ad b0 BCS 55 55 6e 24 f9 13949
4802 f9af f0 BEQ 55 55 6e 24 f9 13951
4803 f9b1 30 BMI 55 55 6e 24 f9 13953
4804 f9b3 70 BVS 55 55 6e 24 f9 13955
4805 f9b5 c9 CMP 55 55 6e 24 f9 13957
4806 f9b7 d0 BNE 55 55 6e 27 f9 13959
4807 f9b9 60 RTS 55 55 6e 27 f9 13961
4808 e3ef c8 INY 55 55 6e 27 fb 13967
4809 e3f0 20 JSR 55 55 6f 25 fb 13969
4810 f9bd 24 BIT 55 55 6f 25 f9 13975
4811 f9bf 38 SEC 55 55 6f e5 f9 13978
4812 f9c0 a9 LDA 55 55 6f e5 f9 13980
4813 f9c2 60 RTS 80 55 6f e5 f9 13982
4814 e3f3 9d STA 80 55 6f e5 fb 13988
4815 e3f6 1e ASL 80 55 6f e5 fb 13993
4816 e3f9 bd LDA 80 55 6f 67 fb 14000
4817 e3fc 20 JSR 00 55 6f 67 fb 14004
4818 f9c3 90 BCC 00 55 6f 67 f9 14010
4819 f9c5 d0 BNE 00 55 6f 67 f9 14012
4820 f9c7 30 BMI 00 55 6f 67 f9 14014
4821 f9c9 50 BVC 00 55 6f 67 f9 14016
4822 f9cb c9 CMP 00 55 6f 67 f9 14018
4823 f9cd d0 BNE 00 55 6f 67 f9 14020
4824 f9cf b8 CLV 00 55 6f 67 f9 14022
4825 f9d0 a9 LDA 00 55 6f 27 f9 14024
4826 f9d2 38 SEC 55 55 6f 25 f9 14026
4827 f9d3 60 RTS 55 55 6f 25 f9 14028
4828 e3ff c8 INY 55 55 6f 25 fb 14034
4829 e400 9d STA 55 55 70 25 fb 14036
4830 e403 1e ASL 55 55 70 25 fb 14041
4831 e406 bd LDA 55 55 70 a4 fb 14048
4832 e409 20 JSR aa 55 70 a4 fb 14052
4833 f9d4 b0 BCS aa 55 70 a4 f9 14058
4834 f9d6 f0 BEQ aa 55 70 a4 f9 14060
4835 f9d8 10 BPL aa 55 70 a4 f9 14062
4836 f9da 70 BVS aa 55 70 a4 f9 14064
4837 f9dc c9 CMP aa 55 70 a4 f9 14066
4838 f9de d0 BNE aa 55 70 27 f9 14068
4839 f9e0 60 RTS aa 55 70 27 f9 14070
4840 e40c c8 INY aa 55 70 27 fb 14076
4841 e40d 20 JSR aa 55 71 25 fb 14078
4842 f9e4 24 BIT aa 55 71 25 f9 14084
4843 f9e6 38 SEC aa 55 71 e5 f9 14087
4844 f9e7 a9 LDA aa 55 71 e5 f9 14089
4845 f9e9 60 RTS 01 55 71 65 f9 14091
4846 e410 9d STA 01 55 71 65 fb 14097
4847 e413 7e ROR 01 55 71 65 fb 14102
4848 e416 bd LDA 01 55 71 e5 fb 14109
4849 e419 20 JSR 80 55 71 e5 fb 14113
4850 f9ea 90 BCC 80 55 71 e5 f9 14119
4851 f9ec f0 BEQ 80 55 71 e5 f9 14121
4852 f9ee 10 BPL 80 55 71 e5 f9 14123
4853 f9f0 50 BVC 80 55 71 e5 f9 14125
4854 f9f2 c9 CMP 80 55 71 e5 f9 14127
4855 f9f4 d0 BNE 80 55 71 67 f9 14129
4856 f9f6 b8 CLV 80 55 71 67 f9 14131
4857 f9f7 18 CLC 80 55 71 27 f9 14133
4858 f9f8 a9 LDA 80 55 71 26 f9 14135
4859 f9fa 60 RTS 55 55 71 24 f9 14137
4860 e41c c8 INY 55 55 71 24 fb 14143
4861 e41d 9d STA 55 55 72 24 fb 14145
4862 e420 7e ROR 55 55 72 24 fb 14150
4863 e423 bd LDA 55 55 72 25 fb 14157
4864 e426 20 JSR 2a 55 72 25 fb 14161
4865 f9fb 90 BCC 2a 55 72 25 f9 14167
4866 f9fd f0 BEQ 2a 55 72 25 f9 14169
4867 f9ff 30 BMI 2a 55 72 25 f9 14171
4868 fa01 70 BVS 2a 55 72 25 f9 14173
4869 fa03 c9 CMP 2a 55 72 25 f9 14175
4870 fa05 d0 BNE 2a 55 72 27 f9 14177
4871 fa07 60 RTS 2a 55 72 27 f9 14179
4872 e429 c8 INY 2a 55 72 27 fb 14185
4873 e42a 20 JSR 2a 55 73 25 fb 14187
4874 fa0a 24 BIT 2a 55 73 25 f9 14193
4875 fa0c 38 SEC 2a 55 73 e5 f9 14196
4876 fa0d a9 LDA 2a 55 73 e5 f9 14198
4877 fa0f 60 RTS 80 55 73 e5 f9 14200
4878 e42d 9d STA 80 55 73 e5 fb 14206
4879 e430 3e ROL 80 55 73 e5 fb 14211
4880 e433 bd LDA 80 55 73 65 fb 14218
4881 e436 20 JSR 01 55 73 65 fb 14222
4882 fa10 90 BCC 01 55 73 65 f9 14228
4883 fa12 f0 BEQ 01 55 73 65 f9 14230
4884 fa14 30 BMI 01 55 73 65 f9 14232
4885 fa16 50 BVC 01 55 73 65 f9 14234
4886 fa18 c9 CMP 01 55 73 65 f9 14236
4887 fa1a d0 BNE 01 55 73 67 f9 14238
4888 fa1c b8 CLV 01 55 73 67 f9 14240
4889 fa1d 18 CLC 01 55 73 27 f9 14242
4890 fa1e a9 LDA 01 55 73 26 f9 14244
4891 fa20 60 RTS 55 55 73 24 f9 14246
4892 e439 c8 INY 55 55 73 24 fb 14252
4893 e43a 9d STA 55 55 74 24 fb 14254
4894 e43d 3e ROL 55 55 74 24 fb 14259
4895 e440 bd LDA 55 55 74 a4 fb 14266
4896 e443 20 JSR aa 55 74 a4 fb 14270
4897 fa21 b0 BCS aa 55 74 a4 f9 14276
4898 fa23 f0 BEQ aa 55 74 a4 f9 14278
4899 fa25 10 BPL aa 55 74 a4 f9 14280
4900 fa27 70 BVS aa 55 74 a4 f9 14282
4901 fa29 c9 CMP aa 55 74 a4 f9 14284
4902 fa2b d0 BNE aa 55 74 27 f9 14286
4903 fa2d 60 RTS aa 55 74 27 f9 14288
4904 e446 a9 LDA aa 55 74 27 fb 14294
4905 e448 9d STA ff 55 74 a5 fb 14296
4906 e44b 85 STA ff 55 74 a5 fb 14301
4907 e44d 24 BIT ff 55 74 a5 fb 14304
4908 e44f 38 SEC ff 55 74 e5 fb 14307
4909 e450 fe INC ff 55 74 e5 fb 14309
4910 e453 d0 BNE ff 55 74 67 fb 14316
4911 e455 30 BMI ff 55 74 67 fb 14318
4912 e457 50 BVC ff 55 74 67 fb 14320
4913 e459 90 BCC ff 55 74 67 fb 14322
4914 e45b bd LDA ff 55 74 67 fb 14324
4915 e45e c9 CMP 00 55 74 67 fb 14328
4916 e460 f0 BEQ 00 55 74 67 fb 14330
4917 e466 a9 LDA 00 55 74 67 fb 14333
4918 e468 9d STA 7f 55 74 65 fb 14335
4919 e46b b8 CLV 7f 55 74 65 fb 14340
4920 e46c 18 CLC 7f 55 74 25 fb 14342
4921 e46d fe INC 7f 55 74 24 fb 14344
4922 e470 f0 BEQ 7f 55 74 a4 fb 14351
4923 e472 10 BPL 7f 55 74 a4 fb 14353
4924 e474 70 BVS 7f 55 74 a4 fb 14355
4925 e476 b0 BCS 7f 55 74 a4 fb 14357
4926 e478 bd LDA 7f 55 74 a4 fb 14359
4927 e47b c9 CMP 80 55 74 a4 fb 14363
4928 e47d f0 BEQ 80 55 74 27 fb 14365
4929 e483 a9 LDA 80 55 74 27 fb 14368
4930 e485 9d STA 00 55 74 27 fb 14370
4931 e488 24 BIT 00 55 74 27 fb 14375
4932 e48a 38 SEC 00 55 74 e7 fb 14378
4933 e48b de DEC 00 55 74 e7 fb 14380
4934 e48e f0 BEQ 00 55 74 e5 fb 14387
4935 e490 10 BPL 00 55 74 e5 fb 14389
4936 e492 50 BVC 00 55 74 e5 fb 14391
4937 e494 90 BCC 00 55 74 e5 fb 14393
4938 e496 bd LDA 00 55 74 e5 fb 14395
4939 e499 c9 CMP ff 55 74 e5 fb 14399
4940 e49b f0 BEQ ff 55 74 67 fb 14401
4941 e4a1 a9 LDA ff 55 74 67 fb 14404
4942 e4a3 9d STA 80 55 74 e5 fb 14406
4943 e4a6 b8 CLV 80 55 74 e5 fb 14411
4944 e4a7 18 CLC 80 55 74 a5 fb 14413
4945 e4a8 de DEC 80 55 74 a4 fb 14415
4946 e4ab f0 BEQ 80 55 74 24 fb 14422
4947 e4ad 30 BMI 80 55 74 24 fb 14424
4948 e4af 70 BVS 80 55 74 24 fb 14426
4949 e4b1 b0 BCS 80 55 74 24 fb 14428
4950 e4b3 bd LDA 80 55 74 24 fb 14430
4951 e4b6 c9 CMP 7f 55 74 24 fb 14434
4952 e4b8 f0 BEQ 7f 55 74 27 fb 14436
4953 e4be a9 LDA 7f 55 74 27 fb 14439
4954 e4c0 9d STA 01 55 74 25 fb 14441
4955 e4c3 de DEC 01 55 74 25 fb 14446
4956 e4c6 f0 BEQ 01 55 74 27 fb 14453
4957 e4cc a9 LDA 01 55 74 27 fb 14456
4958 e4ce 8d STA 33 55 74 25 fb 14458
4959 e4d1 a9 LDA 33 55 74 25 fb 14462
4960 e4d3 a0 LDY 44 55 74 25 fb 14464
4961 e4d5 a2 LDX 44 55 78 25 fb 14466
4962 e4d7 38 SEC 44 00 78 27 fb 14468
4963 e4d8 24 BIT 44 00 78 27 fb 14470
4964 e4da be LDX 44 00 78 e5 fb 14473
4965 e4dd 90 BCC 44 33 78 65 fb 14477
4966 e4df 50 BVC 44 33 78 65 fb 14479
4967 e4e1 30 BMI 44 33 78 65 fb 14481
4968 e4e3 f0 BEQ 44 33 78 65 fb 14483
4969 e4e5 e0 CPX 44 33 78 65 fb 14485
4970 e4e7 d0 BNE 44 33 78 67 fb 14487
4971 e4e9 c0 CPY 44 33 78 67 fb 14489
4972 e4eb d0 BNE 44 33 78 67 fb 14491
4973 e4ed c9 CMP 44 33 78 67 fb 14493
4974 e4ef f0 BEQ 44 33 78 67 fb 14495
4975 e4f5 a9 LDA 44 33 78 67 fb 14498
4976 e4f7 8d STA 97 33 78 e5 fb 14500
4977 e4fa a9 LDA 97 33 78 e5 fb 14504
4978 e4fc a0 LDY 47 33 78 65 fb 14506
4979 e4fe a2 LDX 47 33 ff e5 fb 14508
4980 e500 18 CLC 47 00 ff 67 fb 14510
4981 e501 b8 CLV 47 00 ff 66 fb 14512
4982 e502 be LDX 47 00 ff 26 fb 14514
4983 e505 b0 BCS 47 97 ff a4 fb 14519
4984 e507 70 BVS 47 97 ff a4 fb 14521
4985 e509 10 BPL 47 97 ff a4 fb 14523
4986 e50b f0 BEQ 47 97 ff a4 fb 14525
4987 e50d e0 CPX 47 97 ff a4 fb 14527
4988 e50f d0 BNE 47 97 ff 27 fb 14529
4989 e511 c0 CPY 47 97 ff 27 fb 14531
4990 e513 d0 BNE 47 97 ff 27 fb 14533
4991 e515 c9 CMP 47 97 ff 27 fb 14535
4992 e517 f0 BEQ 47 97 ff 27 fb 14537
4993 e51d 60 RTS 47 97 ff 27 fb 14540
4994 c62f 20 JSR 47 97 ff 27 fd 14546
4995 c6a3 a0 LDY 47 97 ff 27 fb 14552
4996 c6a5 a9 LDA 47 97 4e 25 fb 14554
4997 c6a7 85 STA ff 97 4e a5 fb 14556
4998 c6a9 20 JSR ff 97 4e a5 fb 14559
4999 c6b0 a9 LDA ff 97 4e a5 f9 14565
5000 c6b2 48 PHA ff 97 4e a5 f9 14567
5001 c6b3 a9 LDA ff 97 4e a5 f8 14570
5002 c6b5 d0 BNE aa 97 4e a5 f8 14572
5003 c6bc 28 PLP aa 97 4e a5 f8 14575
5004 c6bd 04 *NOP aa 97 4e ef f9 14579
5005 c6bf 44 *NOP aa 97 4e ef f9 14582
5006 c6c1 64 *NOP aa 97 4e ef f9 14585
5007 c6c3 ea NOP aa 97 4e ef f9 14588
5008 c6c4 ea NOP aa 97 4e ef f9 14590
5009 c6c5 ea NOP aa 97 4e ef f9 14592
5010 c6c6 ea NOP aa 97 4e ef f9 14594
5011 c6c7 08 PHP aa 97 4e ef f9 14596
5012 c6c8 48 PHA aa 97 4e ef f8 14599
5013 c6c9 0c *NOP aa 97 4e ef f7 14602
5014 c6cc ea NOP aa 97 4e ef f7 14606
5015 c6cd ea NOP aa 97 4e ef f7 14608
5016 c6ce ea NOP aa 97 4e ef f7 14610
5017 c6cf ea NOP aa 97 4e ef f7 14612
5018 c6d0 08 PHP aa 97 4e ef f7 14614
5019 c6d1 48 PHA aa 97 4e ef f6 14617
5020 c6d2 14 *NOP aa 97 4e ef f5 14620
5021 c6d4 34 *NOP aa 97 4e ef f5 14624
5022 c6d6 54 *NOP aa 97 4e ef f5 14628
5023 c6d8 74 *NOP aa 97 4e ef f5 14632
5024 c6da d4 *NOP aa 97 4e ef f5 14636
5025 c6dc f4 *NOP aa 97 4e ef f5 14640
5026 c6de ea NOP aa 97 4e ef f5 14644
5027 c6df ea NOP aa 97 4e ef f5 14646
5028 c6e0 ea NOP aa 97 4e ef f5 14648
5029 c6e1 ea NOP aa 97 4e ef f5 14650
5030 c6e2 08 PHP aa 97 4e ef f5 14652
5031 c6e3 48 PHA aa 97 4e ef f4 14655
5032 c6e4 1a *NOP aa 97 4e ef f3 14658
5033 c6e5 3a *NOP aa 97 4e ef f3 14660
5034 c6e6 5a *NOP aa 97 4e ef f3 14662
5035 c6e7 7a *NOP aa 97 4e ef f3 14664
5036 c6e8 da *NOP aa 97 4e ef f3 14666
5037 c6e9 fa *NOP aa 97 4e ef f3 14668
5038 c6ea 80 *NOP aa 97 4e ef f3 14670
5039 c6ec ea NOP aa 97 4e ef f3 14672
5040 c6ed ea NOP aa 97 4e ef f3 14674
5041 c6ee ea NOP aa 97 4e ef f3 14676
5042 c6ef ea NOP aa 97 4e ef f3 14678
5043 c6f0 08 PHP aa 97 4e ef f3 14680
5044 c6f1 48 PHA aa 97 4e ef f2 14683
5045 c6f2 1c *NOP aa 97 4e ef f1 14686
5046 c6f5 3c *NOP aa 97 4e ef f1 14691
5047 c6f8 5c *NOP aa 97 4e ef f1 14696
5048 c6fb 7c *NOP aa 97 4e ef f1 14701
5049 c6fe dc *NOP aa 97 4e ef f1 14706
5050 c701 fc *NOP aa 97 4e ef f1 14711
5051 c704 ea NOP aa 97 4e ef f1 14716
5052 c705 ea NOP aa 97 4e ef f1 14718
5053 c706 ea NOP aa 97 4e ef f1 14720
5054 c707 ea NOP aa 97 4e ef f1 14722
5055 c708 08 PHP aa 97 4e ef f1 14724
5056 c709 48 PHA aa 97 4e ef f0 14727
5057 c70a a2 LDX aa 97 4e ef ef 14730
5058 c70c 68 PLA aa 05 4e 6d ef 14732
5059 c70d c9 CMP aa 05 4e ed f0 14736
5060 c70f f0 BEQ aa 05 4e 6d f0 14738
5061 c711 c9 CMP aa 05 4e 6d f0 14740
5062 c713 f0 BEQ aa 05 4e 6f f0 14742
5063 c71b 68 PLA aa 05 4e 6f f0 14745
5064 c71c 29 AND ff 05 4e ed f1 14749
5065 c71e c9 CMP cb 05 4e ed f1 14751
5066 c720 f0 BEQ cb 05 4e ed f1 14753
5067 c722 c9 CMP cb 05 4e ed f1 14755
5068 c724 f0 BEQ cb 05 4e 6f f1 14757
5069 c728 c8 INY cb 05 4e 6f f1 14760
5070 c729 ca DEX cb 05 4f 6d f1 14762
5071 c72a d0 BNE cb 04 4f 6d f1 14764
5072 c70c 68 PLA cb 04 4f 6d f1 14767
5073 c70d c9 CMP aa 04 4f ed f2 14771
5074 c70f f0 BEQ aa 04 4f 6d f2 14773
5075 c711 c9 CMP aa 04 4f 6d f2 14775
5076 c713 f0 BEQ aa 04 4f 6f f2 14777
5077 c71b 68 PLA aa 04 4f 6f f2 14780
5078 c71c 29 AND ff 04 4f ed f3 14784
5079 c71e c9 CMP cb 04 4f ed f3 14786
5080 c720 f0 BEQ cb 04 4f ed f3 14788
5081 c722 c9 CMP cb 04 4f ed f3 14790
5082 c724 f0 BEQ cb 04 4f 6f f3 14792
5083 c728 c8 INY cb 04 4f 6f f3 14795
5084 c729 ca DEX cb 04 50 6d f3 14797
5085 c72a d0 BNE cb 03 50 6d f3 14799
5086 c70c 68 PLA cb 03 50 6d f3 14802
5087 c70d c9 CMP aa 03 50 ed f4 14806
5088 c70f f0 BEQ aa 03 50 6d f4 14808
5089 c711 c9 CMP aa 03 50 6d f4 14810
5090 c713 f0 BEQ aa 03 50 6f f4 14812
5091 c71b 68 PLA aa 03 50 6f f4 14815
5092 c71c 29 AND ff 03 50 ed f5 14819
5093 c71e c9 CMP cb 03 50 ed f5 14821
5094 c720 f0 BEQ cb 03 50 ed f5 14823
5095 c722 c9 CMP cb 03 50 ed f5 14825
5096 c724 f0 BEQ cb 03 50 6f f5 14827
5097 c728 c8 INY cb 03 50 6f f5 14830
5098 c729 ca DEX cb 03 51 6d f5 14832
5099 c72a d0 BNE cb 02 51 6d f5 14834
5100 c70c 68 PLA cb 02 51 6d f5 14837
5101 c70d c9 CMP aa 02 51 ed f6 14841
5102 c70f f0 BEQ aa 02 51 6d f6 14843
5103 c711 c9 CMP aa 02 51 6d f6 14845
5104 c713 f0 BEQ aa 02 51 6f f6 14847
5105 c71b 68 PLA aa 02 51 6f f6 14850
5106 c71c 29 AND ff 02 51 ed f7 14854
5107 c71e c9 CMP cb 02 51 ed f7 14856
5108 c720 f0 BEQ cb 02 51 ed f7 14858
5109 c722 c9 CMP cb 02 51 ed f7 14860
5110 c724 f0 BEQ cb 02 51 6f f7 14862
5111 c728 c8 INY cb 02 51 6f f7 14865
5112 c729 ca DEX cb 02 52 6d f7 14867
5113 c72a d0 BNE cb 01 52 6d f7 14869
5114 c70c 68 PLA cb 01 52 6d f7 14872
5115 c70d c9 CMP aa 01 52 ed f8 14876
5116 c70f f0 BEQ aa 01 52 6d f8 14878
5117 c711 c9 CMP aa 01 52 6d f8 14880
5118 c713 f0 BEQ aa 01 52 6f f8 14882
5119 c71b 68 PLA aa 01 52 6f f8 14885
5120 c71c 29 AND ff 01 52 ed f9 14889
5121 c71e c9 CMP cb 01 52 ed f9 14891
5122 c720 f0 BEQ cb 01 52 ed f9 14893
5123 c722 c9 CMP cb 01 52 ed f9 14895
5124 c724 f0 BEQ cb 01 52 6f f9 14897
5125 c728 c8 INY cb 01 52 6f f9 14900
5126 c729 ca DEX cb 01 53 6d f9 14902
5127 c72a d0 BNE cb 00 53 6f f9 14904
5128 c72c 60 RTS cb 00 53 6f f9 14906
5129 c6ac 20 JSR cb 00 53 6f fb 14912
5130 c6b7 a9 LDA cb 00 53 6f f9 14918
5131 c6b9 48 PHA 34 00 53 6d f9 14920
5132 c6ba a9 LDA 34 00 53 6d f8 14923
5133 c6bc 28 PLP 55 00 53 6d f8 14925
5134 c6bd 04 *NOP 55 00 53 24 f9 14929
5135 c6bf 44 *NOP 55 00 53 24 f9 14932
5136 c6c1 64 *NOP 55 00 53 24 f9 14935
5137 c6c3 ea NOP 55 00 53 24 f9 14938
5138 c6c4 ea NOP 55 00 53 24 f9 14940
5139 c6c5 ea NOP 55 00 53 24 f9 14942
5140 c6c6 ea NOP 55 00 53 24 f9 14944
5141 c6c7 08 PHP 55 00 53 24 f9 14946
5142 c6c8 48 PHA 55 00 53 24 f8 14949
5143 c6c9 0c *NOP 55 00 53 24 f7 14952
5144 c6cc ea NOP 55 00 53 24 f7 14956
5145 c6cd ea NOP 55 00 53 24 f7 14958
5146 c6ce ea NOP 55 00 53 24 f7 14960
5147 c6cf ea NOP 55 00 53 24 f7 14962
5148 c6d0 08 PHP 55 00 53 24 f7 14964
5149 c6d1 48 PHA 55 00 53 24 f6 14967
5150 c6d2 14 *NOP 55 00 53 24 f5 14970
5151 c6d4 34 *NOP 55 00 53 24 f5 14974
5152 c6d6 54 *NOP 55 00 53 24 f5 14978
5153 c6d8 74 *NOP 55 00 53 24 f5 14982
5154 c6da d4 *NOP 55 00 53 24 f5 14986
5155 c6dc f4 *NOP 55 00 53 24 f5 14990
5156 c6de ea NOP 55 00 53 24 f5 14994
5157 c6df ea NOP 55 00 53 24 f5 14996
5158 c6e0 ea NOP 55 00 53 24 f5 14998
5159 c6e1 ea NOP 55 00 53 24 f5 15000
5160 c6e2 08 PHP 55 00 53 24 f5 15002
5161 c6e3 48 PHA 55 00 53 24 f4 15005
5162 c6e4 1a *NOP 55 00 53 24 f3 15008
5163 c6e5 3a *NOP 55 00 53 24 f3 15010
5164 c6e6 5a *NOP 55 00 53 24 f3 15012
5165 c6e7 7a *NOP 55 00 53 24 f3 15014
5166 c6e8 da *NOP 55 00 53 24 f3 15016
5167 c6e9 fa *NOP 55 00 53 24 f3 15018
5168 c6ea 80 *NOP 55 00 53 24 f3 15020
5169 c6ec ea NOP 55 00 53 24 f3 15022
5170 c6ed ea NOP 55 00 53 24 f3 15024
5171 c6ee ea NOP 55 00 53 24 f3 15026
5172 c6ef ea NOP 55 00 53 24 f3 15028
5173 c6f0 08 PHP 55 00 53 24 f3 15030
5174 c6f1 48 PHA 55 00 53 24 f2 15033
5175 c6f2 1c *NOP 55 00 53 24 f1 15036
5176 c6f5 3c *NOP 55 00 53 24 f1 15040
5177 c6f8 5c *NOP 55 00 53 24 f1 15044
5178 c6fb 7c *NOP 55 00 53 24 f1 15048
5179 c6fe dc *NOP 55 00 53 24 f1 15052
5180 c701 fc *NOP 55 00 53 24 f1 15056
5181 c704 ea NOP 55 00 53 24 f1 15060
5182 c705 ea NOP 55 00 53 24 f1 15062
5183 c706 ea NOP 55 00 53 24 f1 15064
5184 c707 ea NOP 55 00 53 24 f1 15066
5185 c708 08 PHP 55 00 53 24 f1 15068
5186 c709 48 PHA 55 00 53 24 f0 15071
5187 c70a a2 LDX 55 00 53 24 ef 15074
5188 c70c 68 PLA 55 05 53 24 ef 15076
5189 c70d c9 CMP 55 05 53 24 f0 15080
5190 c70f f0 BEQ 55 05 53 27 f0 15082
5191 c71b 68 PLA 55 05 53 27 f0 15085
5192 c71c 29 AND 34 05 53 25 f1 15089
5193 c71e c9 CMP 00 05 53 27 f1 15091
5194 c720 f0 BEQ 00 05 53 27 f1 15093
5195 c728 c8 INY 00 05 53 27 f1 15096
5196 c729 ca DEX 00 05 54 25 f1 15098
5197 c72a d0 BNE 00 04 54 25 f1 15100
5198 c70c 68 PLA 00 04 54 25 f1 15103
5199 c70d c9 CMP 55 04 54 25 f2 15107
5200 c70f f0 BEQ 55 04 54 27 f2 15109
5201 c71b 68 PLA 55 04 54 27 f2 15112
5202 c71c 29 AND 34 04 54 25 f3 15116
5203 c71e c9 CMP 00 04 54 27 f3 15118
5204 c720 f0 BEQ 00 04 54 27 f3 15120
5205 c728 c8 INY 00 04 54 27 f3 15123
5206 c729 ca DEX 00 04 55 25 f3 15125
5207 c72a d0 BNE 00 03 55 25 f3 15127
5208 c70c 68 PLA 00 03 55 25 f3 15130
5209 c70d c9 CMP 55 03 55 25 f4 15134
5210 c70f f0 BEQ 55 03 55 27 f4 15136
5211 c71b 68 PLA 55 03 55 27 f4 15139
5212 c71c 29 AND 34 03 55 25 f5 15143
5213 c71e c9 CMP 00 03 55 27 f5 15145
5214 c720 f0 BEQ 00 03 55 27 f5 15147
5215 c728 c8 INY 00 03 55 27 f5 15150
5216 c729 ca DEX 00 03 56 25 f5 15152
5217 c72a d0 BNE 00 02 56 25 f5 15154
5218 c70c 68 PLA 00 02 56 25 f5 15157
5219 c70d c9 CMP 55 02 56 25 f6 15161
5220 c70f f0 BEQ 55 02 56 27 f6 15163
5221 c71b 68 PLA 55 02 56 27 f6 15166
5222 c71c 29 AND 34 02 56 25 f7 15170
5223 c71e c9 CMP 00 02 56 27 f7 15172
5224 c720 f0 BEQ 00 02 56 27 f7 15174
5225 c728 c8 INY 00 02 56 27 f7 15177
5226 c729 ca DEX 00 02 57 25 f7 15179
5227 c72a d0 BNE 00 01 57 25 f7 15181
5228 c70c 68 PLA 00 01 57 25 f7 15184
5229 c70d c9 CMP 55 01 57 25 f8 15188
5230 c70f f0 BEQ 55 01 57 27 f8 15190
5231 c71b 68 PLA 55 01 57 27 f8 15193
5232 c71c 29 AND 34 01 57 25 f9 15197
5233 c71e c9 CMP 00 01 57 27 f9 15199
5234 c720 f0 BEQ 00 01 57 27 f9 15201
5235 c728 c8 INY 00 01 57 27 f9 15204
5236 c729 ca DEX 00 01 58 25 f9 15206
5237 c72a d0 BNE 00 00 58 27 f9 15208
5238 c72c 60 RTS 00 00 58 27 f9 15210
5239 c6af 60 RTS 00 00 58 27 fb 15216
5240 c632 20 JSR 00 00 58 27 fd 15222
5241 e51e a9 LDA 00 00 58 27 fb 15228
5242 e520 8d STA 55 00 58 25 fb 15230
5243 e523 a9 LDA 55 00 58 25 fb 15234
5244 e525 8d STA aa 00 58 a5 fb 15236
5245 e528 a9 LDA aa 00 58 a5 fb 15240
5246 e52a 85 STA 80 00 58 a5 fb 15242
5247 e52c a9 LDA 80 00 58 a5 fb 15245
5248 e52e 85 STA 05 00 58 25 fb 15247
5249 e530 a9 LDA 05 00 58 25 fb 15250
5250 e532 85 STA 32 00 58 25 fb 15252
5251 e534 a9 LDA 32 00 58 25 fb 15255
5252 e536 85 STA 04 00 58 25 fb 15257
5253 e538 a2 LDX 04 00 58 25 fb 15260
5254 e53a a0 LDY 04 03 58 25 fb 15262
5255 e53c a9 LDA 04 03 77 25 fb 15264
5256 e53e 85 STA ff 03 77 a5 fb 15266
5257 e540 24 BIT ff 03 77 a5 fb 15269
5258 e542 38 SEC ff 03 77 e5 fb 15272
5259 e543 a9 LDA ff 03 77 e5 fb 15274
5260 e545 a3 *LAX 00 03 77 67 fb 15276
5261 e547 ea NOP 55 55 77 65 fb 15282
5262 e548 ea NOP 55 55 77 65 fb 15284
5263 e549 ea NOP 55 55 77 65 fb 15286
5264 e54a ea NOP 55 55 77 65 fb 15288
5265 e54b f0 BEQ 55 55 77 65 fb 15290
5266 e54d 30 BMI 55 55 77 65 fb 15292
5267 e54f 50 BVC 55 55 77 65 fb 15294
5268 e551 90 BCC 55 55 77 65 fb 15296
5269 e553 c9 CMP 55 55 77 65 fb 15298
5270 e555 d0 BNE 55 55 77 67 fb 15300
5271 e557 e0 CPX 55 55 77 67 fb 15302
5272 e559 d0 BNE 55 55 77 67 fb 15304
5273 e55b c0 CPY 55 55 77 67 fb 15306
5274 e55d f0 BEQ 55 55 77 67 fb 15308
5275 e563 a2 LDX 55 55 77 67 fb 15311
5276 e565 a0 LDY 55 05 77 65 fb 15313
5277 e567 b8 CLV 55 05 33 65 fb 15315
5278 e568 18 CLC 55 05 33 25 fb 15317
5279 e569 a9 LDA 55 05 33 24 fb 15319
5280 e56b a3 *LAX 00 05 33 26 fb 15321
5281 e56d ea NOP aa aa 33 a4 fb 15327
5282 e56e ea NOP aa aa 33 a4 fb 15329
5283 e56f ea NOP aa aa 33 a4 fb 15331
5284 e570 ea NOP aa aa 33 a4 fb 15333
5285 e571 f0 BEQ aa aa 33 a4 fb 15335
5286 e573 10 BPL aa aa 33 a4 fb 15337
5287 e575 70 BVS aa aa 33 a4 fb 15339
5288 e577 b0 BCS aa aa 33 a4 fb 15341
5289 e579 c9 CMP aa aa 33 a4 fb 15343
5290 e57b d0 BNE aa aa 33 27 fb 15345
5291 e57d e0 CPX aa aa 33 27 fb 15347
5292 e57f d0 BNE aa aa 33 27 fb 15349
5293 e581 c0 CPY aa aa 33 27 fb 15351
5294 e583 f0 BEQ aa aa 33 27 fb 15353
5295 e589 a9 LDA aa aa 33 27 fb 15356
5296 e58b 85 STA 87 aa 33 a5 fb 15358
5297 e58d a9 LDA 87 aa 33 a5 fb 15361
5298 e58f 85 STA 32 aa 33 25 fb 15363
5299 e591 a0 LDY 32 aa 33 25 fb 15366
5300 e593 24 BIT 32 aa 57 25 fb 15368
5301 e595 38 SEC 32 aa 57 e5 fb 15371
5302 e596 a9 LDA 32 aa 57 e5 fb 15373
5303 e598 a7 *LAX 00 aa 57 67 fb 15375
5304 e59a ea NOP 87 87 57 e5 fb 15378
5305 e59b ea NOP 87 87 57 e5 fb 15380
5306 e59c ea NOP 87 87 57 e5 fb 15382
5307 e59d ea NOP 87 87 57 e5 fb 15384
5308 e59e f0 BEQ 87 87 57 e5 fb 15386
5309 e5a0 10 BPL 87 87 57 e5 fb 15388
5310 e5a2 50 BVC 87 87 57 e5 fb 15390
5311 e5a4 90 BCC 87 87 57 e5 fb 15392
5312 e5a6 c9 CMP 87 87 57 e5 fb 15394
5313 e5a8 d0 BNE 87 87 57 67 fb 15396
5314 e5aa e0 CPX 87 87 57 67 fb 15398
5315 e5ac d0 BNE 87 87 57 67 fb 15400
5316 e5ae c0 CPY 87 87 57 67 fb 15402
5317 e5b0 f0 BEQ 87 87 57 67 fb 15404
5318 e5b6 a0 LDY 87 87 57 67 fb 15407
5319 e5b8 b8 CLV 87 87 53 65 fb 15409
5320 e5b9 18 CLC 87 87 53 25 fb 15411
5321 e5ba a9 LDA 87 87 53 24 fb 15413
5322 e5bc a7 *LAX 00 87 53 26 fb 15415
5323 e5be ea NOP 32 32 53 24 fb 15418
5324 e5bf ea NOP 32 32 53 24 fb 15420
5325 e5c0 ea NOP 32 32 53 24 fb 15422
5326 e5c1 ea NOP 32 32 53 24 fb 15424
5327 e5c2 f0 BEQ 32 32 53 24 fb 15426
5328 e5c4 30 BMI 32 32 53 24 fb 15428
5329 e5c6 70 BVS 32 32 53 24 fb 15430
5330 e5c8 b0 BCS 32 32 53 24 fb 15432
5331 e5ca c9 CMP 32 32 53 24 fb 15434
5332 e5cc d0 BNE 32 32 53 27 fb 15436
5333 e5ce e0 CPX 32 32 53 27 fb 15438
5334 e5d0 d0 BNE 32 32 53 27 fb 15440
5335 e5d2 c0 CPY 32 32 53 27 fb 15442
5336 e5d4 f0 BEQ 32 32 53 27 fb 15444
5337 e5da a9 LDA 32 32 53 27 fb 15447
5338 e5dc 8d STA 87 32 53 a5 fb 15449
5339 e5df a9 LDA 87 32 53 a5 fb 15453
5340 e5e1 8d STA 32 32 53 25 fb 15455
5341 e5e4 a0 LDY 32 32 53 25 fb 15459
5342 e5e6 24 BIT 32 32 57 25 fb 15461
5343 e5e8 38 SEC 32 32 57 e5 fb 15464
5344 e5e9 a9 LDA 32 32 57 e5 fb 15466
5345 e5eb af *LAX 00 32 57 67 fb 15468
5346 e5ee ea NOP 87 87 57 e5 fb 15472
5347 e5ef ea NOP 87 87 57 e5 fb 15474
5348 e5f0 ea NOP 87 87 57 e5 fb 15476
5349 e5f1 ea NOP 87 87 57 e5 fb 15478
5350 e5f2 f0 BEQ 87 87 57 e5 fb 15480
5351 e5f4 10 BPL 87 87 57 e5 fb 15482
5352 e5f6 50 BVC 87 87 57 e5 fb 15484
5353 e5f8 90 BCC 87 87 57 e5 fb 15486
5354 e5fa c9 CMP 87 87 57 e5 fb 15488
5355 e5fc d0 BNE 87 87 57 67 fb 15490
5356 e5fe e0 CPX 87 87 57 67 fb 15492
5357 e600 d0 BNE 87 87 57 67 fb 15494
5358 e602 c0 CPY 87 87 57 67 fb 15496
5359 e604 f0 BEQ 87 87 57 67 fb 15498
5360 e60a a0 LDY 87 87 57 67 fb 15501
5361 e60c b8 CLV 87 87 53 65 fb 15503
5362 e60d 18 CLC 87 87 53 25 fb 15505
5363 e60e a9 LDA 87 87 53 24 fb 15507
5364 e610 af *LAX 00 87 53 26 fb 15509
5365 e613 ea NOP 32 32 53 24 fb 15513
5366 e614 ea NOP 32 32 53 24 fb 15515
5367 e615 ea NOP 32 32 53 24 fb 15517
5368 e616 ea NOP 32 32 53 24 fb 15519
5369 e617 f0 BEQ 32 32 53 24 fb 15521
5370 e619 30 BMI 32 32 53 24 fb 15523
5371 e61b 70 BVS 32 32 53 24 fb 15525
5372 e61d b0 BCS 32 32 53 24 fb 15527
5373 e61f c9 CMP 32 32 53 24 fb 15529
5374 e621 d0 BNE 32 32 53 27 fb 15531
5375 e623 e0 CPX 32 32 53 27 fb 15533
5376 e625 d0 BNE 32 32 53 27 fb 15535
5377 e627 c0 CPY 32 32 53 27 fb 15537
5378 e629 f0 BEQ 32 32 53 27 fb 15539
5379 e62f a9 LDA 32 32 53 27 fb 15542
5380 e631 85 STA ff 32 53 a5 fb 15544
5381 e633 a9 LDA ff 32 53 a5 fb 15547
5382 e635 85 STA 04 32 53 25 fb 15549
5383 e637 a9 LDA 04 32 53 25 fb 15552
5384 e639 85 STA 32 32 53 25 fb 15554
5385 e63b a9 LDA 32 32 53 25 fb 15557
5386 e63d 85 STA 04 32 53 25 fb 15559
5387 e63f a9 LDA 04 32 53 25 fb 15562
5388 e641 8d STA 55 32 53 25 fb 15564
5389 e644 a9 LDA 55 32 53 25 fb 15568
5390 e646 8d STA aa 32 53 a5 fb 15570
5391 e649 a2 LDX aa 32 53 a5 fb 15574
5392 e64b a0 LDY aa 03 53 25 fb 15576
5393 e64d 24 BIT aa 03 81 a5 fb 15578
5394 e64f 38 SEC aa 03 81 e5 fb 15581
5395 e650 a9 LDA aa 03 81 e5 fb 15583
5396 e652 b3 *LAX 00 03 81 67 fb 15585
5397 e654 ea NOP 55 55 81 65 fb 15591
5398 e655 ea NOP 55 55 81 65 fb 15593
5399 e656 ea NOP 55 55 81 65 fb 15595
5400 e657 ea NOP 55 55 81 65 fb 15597
5401 e658 f0 BEQ 55 55 81 65 fb 15599
5402 e65a 30 BMI 55 55 81 65 fb 15601
5403 e65c 50 BVC 55 55 81 65 fb 15603
5404 e65e 90 BCC 55 55 81 65 fb 15605
5405 e660 c9 CMP 55 55 81 65 fb 15607
5406 e662 d0 BNE 55 55 81 67 fb 15609
5407 e664 e0 CPX 55 55 81 67 fb 15611
5408 e666 d0 BNE 55 55 81 67 fb 15613
5409 e668 c0 CPY 55 55 81 67 fb 15615
5410 e66a f0 BEQ 55 55 81 67 fb 15617
5411 e670 a2 LDX 55 55 81 67 fb 15620
5412 e672 a0 LDY 55 05 81 65 fb 15622
5413 e674 b8 CLV 55 05 00 67 fb 15624
5414 e675 18 CLC 55 05 00 27 fb 15626
5415 e676 a9 LDA 55 05 00 26 fb 15628
5416 e678 b3 *LAX 00 05 00 26 fb 15630
5417 e67a ea NOP aa aa 00 a4 fb 15635
5418 e67b ea NOP aa aa 00 a4 fb 15637
5419 e67c ea NOP aa aa 00 a4 fb 15639
5420 e67d ea NOP aa aa 00 a4 fb 15641
5421 e67e f0 BEQ aa aa 00 a4 fb 15643
5422 e680 10 BPL aa aa 00 a4 fb 15645
5423 e682 70 BVS aa aa 00 a4 fb 15647
5424 e684 b0 BCS aa aa 00 a4 fb 15649
5425 e686 c9 CMP aa aa 00 a4 fb 15651
5426 e688 d0 BNE aa aa 00 27 fb 15653
5427 e68a e0 CPX aa aa 00 27 fb 15655
5428 e68c d0 BNE aa aa 00 27 fb 15657
5429 e68e c0 CPY aa aa 00 27 fb 15659
5430 e690 f0 BEQ aa aa 00 27 fb 15661
5431 e696 a9 LDA aa aa 00 27 fb 15664
5432 e698 85 STA 87 aa 00 a5 fb 15666
5433 e69a a9 LDA 87 aa 00 a5 fb 15669
5434 e69c 85 STA 32 aa 00 25 fb 15671
5435 e69e a0 LDY 32 aa 00 25 fb 15674
5436 e6a0 24 BIT 32 aa 57 25 fb 15676
5437 e6a2 38 SEC 32 aa 57 e5 fb 15679
5438 e6a3 a9 LDA 32 aa 57 e5 fb 15681
5439 e6a5 b7 *LAX 00 aa 57 67 fb 15683
5440 e6a7 ea NOP 87 87 57 e5 fb 15687
5441 e6a8 ea NOP 87 87 57 e5 fb 15689
5442 e6a9 ea NOP 87 87 57 e5 fb 15691
5443 e6aa ea NOP 87 87 57 e5 fb 15693
5444 e6ab f0 BEQ 87 87 57 e5 fb 15695
5445 e6ad 10 BPL 87 87 57 e5 fb 15697
5446 e6af 50 BVC 87 87 57 e5 fb 15699
5447 e6b1 90 BCC 87 87 57 e5 fb 15701
5448 e6b3 c9 CMP 87 87 57 e5 fb 15703
5449 e6b5 d0 BNE 87 87 57 67 fb 15705
5450 e6b7 e0 CPX 87 87 57 67 fb 15707
5451 e6b9 d0 BNE 87 87 57 67 fb 15709
5452 e6bb c0 CPY 87 87 57 67 fb 15711
5453 e6bd f0 BEQ 87 87 57 67 fb 15713
5454 e6c3 a0 LDY 87 87 57 67 fb 15716
5455 e6c5 b8 CLV 87 87 ff e5 fb 15718
5456 e6c6 18 CLC 87 87 ff a5 fb 15720
5457 e6c7 a9 LDA 87 87 ff a4 fb 15722
5458 e6c9 b7 *LAX 00 87 ff 26 fb 15724
5459 e6cb ea NOP 32 32 ff 24 fb 15728
5460 e6cc ea NOP 32 32 ff 24 fb 15730
5461 e6cd ea NOP 32 32 ff 24 fb 15732
5462 e6ce ea NOP 32 32 ff 24 fb 15734
5463 e6cf f0 BEQ 32 32 ff 24 fb 15736
5464 e6d1 30 BMI 32 32 ff 24 fb 15738
5465 e6d3 70 BVS 32 32 ff 24 fb 15740
5466 e6d5 b0 BCS 32 32 ff 24 fb 15742
5467 e6d7 c9 CMP 32 32 ff 24 fb 15744
5468 e6d9 d0 BNE 32 32 ff 27 fb 15746
5469 e6db e0 CPX 32 32 ff 27 fb 15748
5470 e6dd d0 BNE 32 32 ff 27 fb 15750
5471 e6df c0 CPY 32 32 ff 27 fb 15752
5472 e6e1 f0 BEQ 32 32 ff 27 fb 15754
5473 e6e7 a9 LDA 32 32 ff 27 fb 15757
5474 e6e9 8d STA 87 32 ff a5 fb 15759
5475 e6ec a9 LDA 87 32 ff a5 fb 15763
5476 e6ee 8d STA 32 32 ff 25 fb 15765
5477 e6f1 a0 LDY 32 32 ff 25 fb 15769
5478 e6f3 24 BIT 32 32 30 25 fb 15771
5479 e6f5 38 SEC 32 32 30 e5 fb 15774
5480 e6f6 a9 LDA 32 32 30 e5 fb 15776
5481 e6f8 bf *LAX 00 32 30 67 fb 15778
5482 e6fb ea NOP 87 87 30 e5 fb 15782
5483 e6fc ea NOP 87 87 30 e5 fb 15784
5484 e6fd ea NOP 87 87 30 e5 fb 15786
5485 e6fe ea NOP 87 87 30 e5 fb 15788
5486 e6ff f0 BEQ 87 87 30 e5 fb 15790
5487 e701 10 BPL 87 87 30 e5 fb 15792
5488 e703 50 BVC 87 87 30 e5 fb 15794
5489 e705 90 BCC 87 87 30 e5 fb 15796
5490 e707 c9 CMP 87 87 30 e5 fb 15798
5491 e709 d0 BNE 87 87 30 67 fb 15800
5492 e70b e0 CPX 87 87 30 67 fb 15802
5493 e70d d0 BNE 87 87 30 67 fb 15804
5494 e70f c0 CPY 87 87 30 67 fb 15806
5495 e711 f0 BEQ 87 87 30 67 fb 15808
5496 e717 a0 LDY 87 87 30 67 fb 15811
5497 e719 b8 CLV 87 87 40 65 fb 15813
5498 e71a 18 CLC 87 87 40 25 fb 15815
5499 e71b a9 LDA 87 87 40 24 fb 15817
5500 e71d bf *LAX 00 87 40 26 fb 15819
5501 e720 ea NOP 32 32 40 24 fb 15823
5502 e721 ea NOP 32 32 40 24 fb 15825
5503 e722 ea NOP 32 32 40 24 fb 15827
5504 e723 ea NOP 32 32 40 24 fb 15829
5505 e724 f0 BEQ 32 32 40 24 fb 15831
5506 e726 30 BMI 32 32 40 24 fb 15833
5507 e728 70 BVS 32 32 40 24 fb 15835
5508 e72a b0 BCS 32 32 40 24 fb 15837
5509 e72c c9 CMP 32 32 40 24 fb 15839
5510 e72e d0 BNE 32 32 40 27 fb 15841
5511 e730 e0 CPX 32 32 40 27 fb 15843
5512 e732 d0 BNE 32 32 40 27 fb 15845
5513 e734 c0 CPY 32 32 40 27 fb 15847
5514 e736 f0 BEQ 32 32 40 27 fb 15849
5515 e73c 60 RTS 32 32 40 27 fb 15852
5516 c635 20 JSR 32 32 40 27 fd 15858
5517 e73d a9 LDA 32 32 40 27 fb 15864
5518 e73f 85 STA c0 32 40 a5 fb 15866
5519 e741 a9 LDA c0 32 40 a5 fb 15869
5520 e743 8d STA 00 32 40 27 fb 15871
5521 e746 a9 LDA 00 32 40 27 fb 15875
5522 e748 85 STA 89 32 40 a5 fb 15877
5523 e74a a9 LDA 89 32 40 a5 fb 15880
5524 e74c 85 STA 04 32 40 25 fb 15882
5525 e74e a0 LDY 04 32 40 25 fb 15885
5526 e750 a2 LDX 04 32 44 25 fb 15887
5527 e752 a9 LDA 04 17 44 25 fb 15889
5528 e754 24 BIT 3e 17 44 25 fb 15891
5529 e756 18 CLC 3e 17 44 e7 fb 15894
5530 e757 83 *SAX 3e 17 44 e6 fb 15896
5531 e759 ea NOP 3e 17 44 e6 fb 15902
5532 e75a ea NOP 3e 17 44 e6 fb 15904
5533 e75b ea NOP 3e 17 44 e6 fb 15906
5534 e75c ea NOP 3e 17 44 e6 fb 15908
5535 e75d d0 BNE 3e 17 44 e6 fb 15910
5536 e75f b0 BCS 3e 17 44 e6 fb 15912
5537 e761 50 BVC 3e 17 44 e6 fb 15914
5538 e763 10 BPL 3e 17 44 e6 fb 15916
5539 e765 c9 CMP 3e 17 44 e6 fb 15918
5540 e767 d0 BNE 3e 17 44 67 fb 15920
5541 e769 c0 CPY 3e 17 44 67 fb 15922
5542 e76b d0 BNE 3e 17 44 67 fb 15924
5543 e76d e0 CPX 3e 17 44 67 fb 15926
5544 e76f d0 BNE 3e 17 44 67 fb 15928
5545 e771 ad LDA 3e 17 44 67 fb 15930
5546 e774 c9 CMP 16 17 44 65 fb 15934
5547 e776 f0 BEQ 16 17 44 67 fb 15936
5548 e77c a0 LDY 16 17 44 67 fb 15939
5549 e77e a2 LDX 16 17 44 65 fb 15941
5550 e780 a9 LDA 16 7a 44 65 fb 15943
5551 e782 38 SEC 66 7a 44 65 fb 15945
5552 e783 b8 CLV 66 7a 44 65 fb 15947
5553 e784 83 *SAX 66 7a 44 25 fb 15949
5554 e786 ea NOP 66 7a 44 25 fb 15955
5555 e787 ea NOP 66 7a 44 25 fb 15957
5556 e788 ea NOP 66 7a 44 25 fb 15959
5557 e789 ea NOP 66 7a 44 25 fb 15961
5558 e78a f0 BEQ 66 7a 44 25 fb 15963
5559 e78c 90 BCC 66 7a 44 25 fb 15965
5560 e78e 70 BVS 66 7a 44 25 fb 15967
5561 e790 30 BMI 66 7a 44 25 fb 15969
5562 e792 c9 CMP 66 7a 44 25 fb 15971
5563 e794 d0 BNE 66 7a 44 27 fb 15973
5564 e796 c0 CPY 66 7a 44 27 fb 15975
5565 e798 d0 BNE 66 7a 44 27 fb 15977
5566 e79a e0 CPX 66 7a 44 27 fb 15979
5567 e79c d0 BNE 66 7a 44 27 fb 15981
5568 e79e ad LDA 66 7a 44 27 fb 15983
5569 e7a1 c9 CMP 62 7a 44 25 fb 15987
5570 e7a3 f0 BEQ 62 7a 44 27 fb 15989
5571 e7a9 a9 LDA 62 7a 44 27 fb 15992
5572 e7ab 85 STA ff 7a 44 a5 fb 15994
5573 e7ad a0 LDY ff 7a 44 a5 fb 15997
5574 e7af a2 LDX ff 7a 44 25 fb 15999
5575 e7b1 a9 LDA ff aa 44 a5 fb 16001
5576 e7b3 24 BIT 55 aa 44 25 fb 16003
5577 e7b5 18 CLC 55 aa 44 e5 fb 16006
5578 e7b6 87 *SAX 55 aa 44 e4 fb 16008
5579 e7b8 ea NOP 55 aa 44 e4 fb 16011
5580 e7b9 ea NOP 55 aa 44 e4 fb 16013
5581 e7ba ea NOP 55 aa 44 e4 fb 16015
5582 e7bb ea NOP 55 aa 44 e4 fb 16017
5583 e7bc f0 BEQ 55 aa 44 e4 fb 16019
5584 e7be b0 BCS 55 aa 44 e4 fb 16021
5585 e7c0 50 BVC 55 aa 44 e4 fb 16023
5586 e7c2 10 BPL 55 aa 44 e4 fb 16025
5587 e7c4 c9 CMP 55 aa 44 e4 fb 16027
5588 e7c6 d0 BNE 55 aa 44 67 fb 16029
5589 e7c8 c0 CPY 55 aa 44 67 fb 16031
5590 e7ca d0 BNE 55 aa 44 67 fb 16033
5591 e7cc e0 CPX 55 aa 44 67 fb 16035
5592 e7ce d0 BNE 55 aa 44 67 fb 16037
5593 e7d0 a5 LDA 55 aa 44 67 fb 16039
5594 e7d2 c9 CMP 00 aa 44 67 fb 16042
5595 e7d4 f0 BEQ 00 aa 44 67 fb 16044
5596 e7da a9 LDA 00 aa 44 67 fb 16047
5597 e7dc 85 STA 00 aa 44 67 fb 16049
5598 e7de a0 LDY 00 aa 44 67 fb 16052
5599 e7e0 a2 LDX 00 aa 58 65 fb 16054
5600 e7e2 a9 LDA 00 ef 58 e5 fb 16056
5601 e7e4 38 SEC 66 ef 58 65 fb 16058
5602 e7e5 b8 CLV 66 ef 58 65 fb 16060
5603 e7e6 87 *SAX 66 ef 58 25 fb 16062
5604 e7e8 ea NOP 66 ef 58 25 fb 16065
5605 e7e9 ea NOP 66 ef 58 25 fb 16067
5606 e7ea ea NOP 66 ef 58 25 fb 16069
5607 e7eb ea NOP 66 ef 58 25 fb 16071
5608 e7ec f0 BEQ 66 ef 58 25 fb 16073
5609 e7ee 90 BCC 66 ef 58 25 fb 16075
5610 e7f0 70 BVS 66 ef 58 25 fb 16077
5611 e7f2 30 BMI 66 ef 58 25 fb 16079
5612 e7f4 c9 CMP 66 ef 58 25 fb 16081
5613 e7f6 d0 BNE 66 ef 58 27 fb 16083
5614 e7f8 c0 CPY 66 ef 58 27 fb 16085
5615 e7fa d0 BNE 66 ef 58 27 fb 16087
5616 e7fc e0 CPX 66 ef 58 27 fb 16089
5617 e7fe d0 BNE 66 ef 58 27 fb 16091
5618 e800 a5 LDA 66 ef 58 27 fb 16093
5619 e802 c9 CMP 66 ef 58 25 fb 16096
5620 e804 f0 BEQ 66 ef 58 27 fb 16098
5621 e80a a9 LDA 66 ef 58 27 fb 16101
5622 e80c 8d STA ff ef 58 a5 fb 16103
5623 e80f a0 LDY ff ef 58 a5 fb 16107
5624 e811 a2 LDX ff ef e5 a5 fb 16109
5625 e813 a9 LDA ff af e5 a5 fb 16111
5626 e815 24 BIT f5 af e5 a5 fb 16113
5627 e817 18 CLC f5 af e5 e5 fb 16116
5628 e818 8f *SAX f5 af e5 e4 fb 16118
5629 e81b ea NOP f5 af e5 e4 fb 16122
5630 e81c ea NOP f5 af e5 e4 fb 16124
5631 e81d ea NOP f5 af e5 e4 fb 16126
5632 e81e ea NOP f5 af e5 e4 fb 16128
5633 e81f f0 BEQ f5 af e5 e4 fb 16130
5634 e821 b0 BCS f5 af e5 e4 fb 16132
5635 e823 50 BVC f5 af e5 e4 fb 16134
5636 e825 10 BPL f5 af e5 e4 fb 16136
5637 e827 c9 CMP f5 af e5 e4 fb 16138
5638 e829 d0 BNE f5 af e5 67 fb 16140
5639 e82b c0 CPY f5 af e5 67 fb 16142
5640 e82d d0 BNE f5 af e5 67 fb 16144
5641 e82f e0 CPX f5 af e5 67 fb 16146
5642 e831 d0 BNE f5 af e5 67 fb 16148
5643 e833 ad LDA f5 af e5 67 fb 16150
5644 e836 c9 CMP a5 af e5 e5 fb 16154
5645 e838 f0 BEQ a5 af e5 67 fb 16156
5646 e83e a9 LDA a5 af e5 67 fb 16159
5647 e840 8d STA 00 af e5 67 fb 16161
5648 e843 a0 LDY 00 af e5 67 fb 16165
5649 e845 a2 LDX 00 af 58 65 fb 16167
5650 e847 a9 LDA 00 b3 58 e5 fb 16169
5651 e849 38 SEC 97 b3 58 e5 fb 16171
5652 e84a b8 CLV 97 b3 58 e5 fb 16173
5653 e84b 8f *SAX 97 b3 58 a5 fb 16175
5654 e84e ea NOP 97 b3 58 a5 fb 16179
5655 e84f ea NOP 97 b3 58 a5 fb 16181
5656 e850 ea NOP 97 b3 58 a5 fb 16183
5657 e851 ea NOP 97 b3 58 a5 fb 16185
5658 e852 f0 BEQ 97 b3 58 a5 fb 16187
5659 e854 90 BCC 97 b3 58 a5 fb 16189
5660 e856 70 BVS 97 b3 58 a5 fb 16191
5661 e858 10 BPL 97 b3 58 a5 fb 16193
5662 e85a c9 CMP 97 b3 58 a5 fb 16195
5663 e85c d0 BNE 97 b3 58 27 fb 16197
5664 e85e c0 CPY 97 b3 58 27 fb 16199
5665 e860 d0 BNE 97 b3 58 27 fb 16201
5666 e862 e0 CPX 97 b3 58 27 fb 16203
5667 e864 d0 BNE 97 b3 58 27 fb 16205
5668 e866 ad LDA 97 b3 58 27 fb 16207
5669 e869 c9 CMP 93 b3 58 a5 fb 16211
5670 e86b f0 BEQ 93 b3 58 27 fb 16213
5671 e871 a9 LDA 93 b3 58 27 fb 16216
5672 e873 85 STA ff b3 58 a5 fb 16218
5673 e875 a0 LDY ff b3 58 a5 fb 16221
5674 e877 a2 LDX ff b3 ff a5 fb 16223
5675 e879 a9 LDA ff aa ff a5 fb 16225
5676 e87b 24 BIT 55 aa ff 25 fb 16227
5677 e87d 18 CLC 55 aa ff e5 fb 16230
5678 e87e 97 *SAX 55 aa ff e4 fb 16232
5679 e880 ea NOP 55 aa ff e4 fb 16236
5680 e881 ea NOP 55 aa ff e4 fb 16238
5681 e882 ea NOP 55 aa ff e4 fb 16240
5682 e883 ea NOP 55 aa ff e4 fb 16242
5683 e884 f0 BEQ 55 aa ff e4 fb 16244
5684 e886 b0 BCS 55 aa ff e4 fb 16246
5685 e888 50 BVC 55 aa ff e4 fb 16248
5686 e88a 10 BPL 55 aa ff e4 fb 16250
5687 e88c c9 CMP 55 aa ff e4 fb 16252
5688 e88e d0 BNE 55 aa ff 67 fb 16254
5689 e890 c0 CPY 55 aa ff 67 fb 16256
5690 e892 d0 BNE 55 aa ff 67 fb 16258
5691 e894 e0 CPX 55 aa ff 67 fb 16260
5692 e896 d0 BNE 55 aa ff 67 fb 16262
5693 e898 a5 LDA 55 aa ff 67 fb 16264
5694 e89a c9 CMP 00 aa ff 67 fb 16267
5695 e89c f0 BEQ 00 aa ff 67 fb 16269
5696 e8a2 a9 LDA 00 aa ff 67 fb 16272
5697 e8a4 85 STA 00 aa ff 67 fb 16274
5698 e8a6 a0 LDY 00 aa ff 67 fb 16277
5699 e8a8 a2 LDX 00 aa 06 65 fb 16279
5700 e8aa a9 LDA 00 ef 06 e5 fb 16281
5701 e8ac 38 SEC 66 ef 06 65 fb 16283
5702 e8ad b8 CLV 66 ef 06 65 fb 16285
5703 e8ae 97 *SAX 66 ef 06 25 fb 16287
5704 e8b0 ea NOP 66 ef 06 25 fb 16291
5705 e8b1 ea NOP 66 ef 06 25 fb 16293
5706 e8b2 ea NOP 66 ef 06 25 fb 16295
5707 e8b3 ea NOP 66 ef 06 25 fb 16297
5708 e8b4 f0 BEQ 66 ef 06 25 fb 16299
5709 e8b6 90 BCC 66 ef 06 25 fb 16301
5710 e8b8 70 BVS 66 ef 06 25 fb 16303
5711 e8ba 30 BMI 66 ef 06 25 fb 16305
5712 e8bc c9 CMP 66 ef 06 25 fb 16307
5713 e8be d0 BNE 66 ef 06 27 fb 16309
5714 e8c0 c0 CPY 66 ef 06 27 fb 16311
5715 e8c2 d0 BNE 66 ef 06 27 fb 16313
5716 e8c4 e0 CPX 66 ef 06 27 fb 16315
5717 e8c6 d0 BNE 66 ef 06 27 fb 16317
5718 e8c8 a5 LDA 66 ef 06 27 fb 16319
5719 e8ca c9 CMP 66 ef 06 25 fb 16322
5720 e8cc f0 BEQ 66 ef 06 27 fb 16324
5721 e8d2 60 RTS 66 ef 06 27 fb 16327
5722 c638 20 JSR 66 ef 06 27 fd 16333
5723 e8d3 a0 LDY 66 ef 06 27 fb 16339
5724 e8d5 20 JSR 66 ef 90 a5 fb 16341
5725 f931 24 BIT 66 ef 90 a5 f9 16347
5726 f933 a9 LDA 66 ef 90 e5 f9 16350
5727 f935 38 SEC 40 ef 90 65 f9 16352
5728 f936 60 RTS 40 ef 90 65 f9 16354
5729 e8d8 eb *SBC 40 ef 90 65 fb 16360
5730 e8da ea NOP 00 ef 90 27 fb 16362
5731 e8db ea NOP 00 ef 90 27 fb 16364
5732 e8dc ea NOP 00 ef 90 27 fb 16366
5733 e8dd ea NOP 00 ef 90 27 fb 16368
5734 e8de 20 JSR 00 ef 90 27 fb 16370
5735 f937 30 BMI 00 ef 90 27 f9 16376
5736 f939 90 BCC 00 ef 90 27 f9 16378
5737 f93b d0 BNE 00 ef 90 27 f9 16380
5738 f93d 70 BVS 00 ef 90 27 f9 16382
5739 f93f c9 CMP 00 ef 90 27 f9 16384
5740 f941 d0 BNE 00 ef 90 27 f9 16386
5741 f943 60 RTS 00 ef 90 27 f9 16388
5742 e8e1 c8 INY 00 ef 90 27 fb 16394
5743 e8e2 20 JSR 00 ef 91 a5 fb 16396
5744 f947 b8 CLV 00 ef 91 a5 f9 16402
5745 f948 38 SEC 00 ef 91 a5 f9 16404
5746 f949 a9 LDA 00 ef 91 a5 f9 16406
5747 f94b 60 RTS 40 ef 91 25 f9 16408
5748 e8e5 eb *SBC 40 ef 91 25 fb 16414
5749 e8e7 ea NOP 01 ef 91 25 fb 16416
5750 e8e8 ea NOP 01 ef 91 25 fb 16418
5751 e8e9 ea NOP 01 ef 91 25 fb 16420
5752 e8ea ea NOP 01 ef 91 25 fb 16422
5753 e8eb 20 JSR 01 ef 91 25 fb 16424
5754 f94c f0 BEQ 01 ef 91 25 f9 16430
5755 f94e 30 BMI 01 ef 91 25 f9 16432
5756 f950 90 BCC 01 ef 91 25 f9 16434
5757 f952 70 BVS 01 ef 91 25 f9 16436
5758 f954 c9 CMP 01 ef 91 25 f9 16438
5759 f956 d0 BNE 01 ef 91 27 f9 16440
5760 f958 60 RTS 01 ef 91 27 f9 16442
5761 e8ee c8 INY 01 ef 91 27 fb 16448
5762 e8ef 20 JSR 01 ef 92 a5 fb 16450
5763 f95c a9 LDA 01 ef 92 a5 f9 16456
5764 f95e 38 SEC 40 ef 92 25 f9 16458
5765 f95f 24 BIT 40 ef 92 25 f9 16460
5766 f961 60 RTS 40 ef 92 e5 f9 16463
5767 e8f2 eb *SBC 40 ef 92 e5 fb 16469
5768 e8f4 ea NOP ff ef 92 a4 fb 16471
5769 e8f5 ea NOP ff ef 92 a4 fb 16473
5770 e8f6 ea NOP ff ef 92 a4 fb 16475
5771 e8f7 ea NOP ff ef 92 a4 fb 16477
5772 e8f8 20 JSR ff ef 92 a4 fb 16479
5773 f962 b0 BCS ff ef 92 a4 f9 16485
5774 f964 f0 BEQ ff ef 92 a4 f9 16487
5775 f966 10 BPL ff ef 92 a4 f9 16489
5776 f968 70 BVS ff ef 92 a4 f9 16491
5777 f96a c9 CMP ff ef 92 a4 f9 16493
5778 f96c d0 BNE ff ef 92 27 f9 16495
5779 f96e 60 RTS ff ef 92 27 f9 16497
5780 e8fb c8 INY ff ef 92 27 fb 16503
5781 e8fc 20 JSR ff ef 93 a5 fb 16505
5782 f972 18 CLC ff ef 93 a5 f9 16511
5783 f973 a9 LDA ff ef 93 a4 f9 16513
5784 f975 60 RTS 80 ef 93 a4 f9 16515
5785 e8ff eb *SBC 80 ef 93 a4 fb 16521
5786 e901 ea NOP 7f ef 93 65 fb 16523
5787 e902 ea NOP 7f ef 93 65 fb 16525
5788 e903 ea NOP 7f ef 93 65 fb 16527
5789 e904 ea NOP 7f ef 93 65 fb 16529
5790 e905 20 JSR 7f ef 93 65 fb 16531
5791 f976 90 BCC 7f ef 93 65 f9 16537
5792 f978 c9 CMP 7f ef 93 65 f9 16539
5793 f97a d0 BNE 7f ef 93 67 f9 16541
5794 f97c 60 RTS 7f ef 93 67 f9 16543
5795 e908 c8 INY 7f ef 93 67 fb 16549
5796 e909 20 JSR 7f ef 94 e5 fb 16551
5797 f980 38 SEC 7f ef 94 e5 f9 16557
5798 f981 a9 LDA 7f ef 94 e5 f9 16559
5799 f983 60 RTS 81 ef 94 e5 f9 16561
5800 e90c eb *SBC 81 ef 94 e5 fb 16567
5801 e90e ea NOP 02 ef 94 65 fb 16569
5802 e90f ea NOP 02 ef 94 65 fb 16571
5803 e910 ea NOP 02 ef 94 65 fb 16573
5804 e911 ea NOP 02 ef 94 65 fb 16575
5805 e912 20 JSR 02 ef 94 65 fb 16577
5806 f984 50 BVC 02 ef 94 65 f9 16583
5807 f986 90 BCC 02 ef 94 65 f9 16585
5808 f988 c9 CMP 02 ef 94 65 f9 16587
5809 f98a d0 BNE 02 ef 94 67 f9 16589
5810 f98c 60 RTS 02 ef 94 67 f9 16591
5811 e915 60 RTS 02 ef 94 67 fb 16597
5812 c63b 20 JSR 02 ef 94 67 fd 16603
5813 e916 a9 LDA 02 ef 94 67 fb 16609
5814 e918 85 STA ff ef 94 e5 fb 16611
5815 e91a a0 LDY ff ef 94 e5 fb 16614
5816 e91c a2 LDX ff ef 95 e5 fb 16616
5817 e91e a9 LDA ff 02 95 65 fb 16618
5818 e920 85 STA 47 02 95 65 fb 16620
5819 e922 a9 LDA 47 02 95 65 fb 16623
5820 e924 85 STA 06 02 95 65 fb 16625
5821 e926 a9 LDA 06 02 95 65 fb 16628
5822 e928 8d STA eb 02 95 e5 fb 16630
5823 e92b 20 JSR eb 02 95 e5 fb 16634
5824 fa31 24 BIT eb 02 95 e5 f9 16640
5825 fa33 18 CLC eb 02 95 e5 f9 16643
5826 fa34 a9 LDA eb 02 95 e4 f9 16645
5827 fa36 60 RTS 40 02 95 64 f9 16647
5828 e92e c3 *DCP 40 02 95 64 fb 16653
5829 e930 ea NOP 40 02 95 64 fb 16661
5830 e931 ea NOP 40 02 95 64 fb 16663
5831 e932 ea NOP 40 02 95 64 fb 16665
5832 e933 ea NOP 40 02 95 64 fb 16667
5833 e934 20 JSR 40 02 95 64 fb 16669
5834 fa37 50 BVC 40 02 95 64 f9 16675
5835 fa39 b0 BCS 40 02 95 64 f9 16677
5836 fa3b 30 BMI 40 02 95 64 f9 16679
5837 fa3d c9 CMP 40 02 95 64 f9 16681
5838 fa3f d0 BNE 40 02 95 67 f9 16683
5839 fa41 60 RTS 40 02 95 67 f9 16685
5840 e937 ad LDA 40 02 95 67 fb 16691
5841 e93a c9 CMP ea 02 95 e5 fb 16695
5842 e93c f0 BEQ ea 02 95 67 fb 16697
5843 e940 c8 INY ea 02 95 67 fb 16700
5844 e941 a9 LDA ea 02 96 e5 fb 16702
5845 e943 8d STA 00 02 96 67 fb 16704
5846 e946 20 JSR 00 02 96 67 fb 16708
5847 fa42 b8 CLV 00 02 96 67 f9 16714
5848 fa43 38 SEC 00 02 96 27 f9 16716
5849 fa44 a9 LDA 00 02 96 27 f9 16718
5850 fa46 60 RTS ff 02 96 a5 f9 16720
5851 e949 c3 *DCP ff 02 96 a5 fb 16726
5852 e94b ea NOP ff 02 96 27 fb 16734
5853 e94c ea NOP ff 02 96 27 fb 16736
5854 e94d ea NOP ff 02 96 27 fb 16738
5855 e94e ea NOP ff 02 96 27 fb 16740
5856 e94f 20 JSR ff 02 96 27 fb 16742
5857 fa47 70 BVS ff 02 96 27 f9 16748
5858 fa49 d0 BNE ff 02 96 27 f9 16750
5859 fa4b 30 BMI ff 02 96 27 f9 16752
5860 fa4d 90 BCC ff 02 96 27 f9 16754
5861 fa4f c9 CMP ff 02 96 27 f9 16756
5862 fa51 d0 BNE ff 02 96 27 f9 16758
5863 fa53 60 RTS ff 02 96 27 f9 16760
5864 e952 ad LDA ff 02 96 27 fb 16766
5865 e955 c9 CMP ff 02 96 a5 fb 16770
5866 e957 f0 BEQ ff 02 96 27 fb 16772
5867 e95b c8 INY ff 02 96 27 fb 16775
5868 e95c a9 LDA ff 02 97 a5 fb 16777
5869 e95e 8d STA 37 02 97 25 fb 16779
5870 e961 20 JSR 37 02 97 25 fb 16783
5871 fa54 24 BIT 37 02 97 25 f9 16789
5872 fa56 a9 LDA 37 02 97 e5 f9 16792
5873 fa58 60 RTS f0 02 97 e5 f9 16794
5874 e964 c3 *DCP f0 02 97 e5 fb 16800
5875 e966 ea NOP f0 02 97 e5 fb 16808
5876 e967 ea NOP f0 02 97 e5 fb 16810
5877 e968 ea NOP f0 02 97 e5 fb 16812
5878 e969 ea NOP f0 02 97 e5 fb 16814
5879 e96a 20 JSR f0 02 97 e5 fb 16816
5880 fa59 50 BVC f0 02 97 e5 f9 16822
5881 fa5b f0 BEQ f0 02 97 e5 f9 16824
5882 fa5d 10 BPL f0 02 97 e5 f9 16826
5883 fa5f 90 BCC f0 02 97 e5 f9 16828
5884 fa61 c9 CMP f0 02 97 e5 f9 16830
5885 fa63 f0 BEQ f0 02 97 67 f9 16832
5886 fa67 60 RTS f0 02 97 67 f9 16835
5887 e96d ad LDA f0 02 97 67 fb 16841
5888 e970 c9 CMP 36 02 97 65 fb 16845
5889 e972 f0 BEQ 36 02 97 67 fb 16847
5890 e976 c8 INY 36 02 97 67 fb 16850
5891 e977 a9 LDA 36 02 98 e5 fb 16852
5892 e979 85 STA eb 02 98 e5 fb 16854
5893 e97b 20 JSR eb 02 98 e5 fb 16857
5894 fa31 24 BIT eb 02 98 e5 f9 16863
5895 fa33 18 CLC eb 02 98 e5 f9 16866
5896 fa34 a9 LDA eb 02 98 e4 f9 16868
5897 fa36 60 RTS 40 02 98 64 f9 16870
5898 e97e c7 *DCP 40 02 98 64 fb 16876
5899 e980 ea NOP 40 02 98 64 fb 16881
5900 e981 ea NOP 40 02 98 64 fb 16883
5901 e982 ea NOP 40 02 98 64 fb 16885
5902 e983 ea NOP 40 02 98 64 fb 16887
5903 e984 20 JSR 40 02 98 64 fb 16889
5904 fa37 50 BVC 40 02 98 64 f9 16895
5905 fa39 b0 BCS 40 02 98 64 f9 16897
5906 fa3b 30 BMI 40 02 98 64 f9 16899
5907 fa3d c9 CMP 40 02 98 64 f9 16901
5908 fa3f d0 BNE 40 02 98 67 f9 16903
5909 fa41 60 RTS 40 02 98 67 f9 16905
5910 e987 a5 LDA 40 02 98 67 fb 16911
5911 e989 c9 CMP ea 02 98 e5 fb 16914
5912 e98b f0 BEQ ea 02 98 67 fb 16916
5913 e98f c8 INY ea 02 98 67 fb 16919
5914 e990 a9 LDA ea 02 99 e5 fb 16921
5915 e992 85 STA 00 02 99 67 fb 16923
5916 e994 20 JSR 00 02 99 67 fb 16926
5917 fa42 b8 CLV 00 02 99 67 f9 16932
5918 fa43 38 SEC 00 02 99 27 f9 16934
5919 fa44 a9 LDA 00 02 99 27 f9 16936
5920 fa46 60 RTS ff 02 99 a5 f9 16938
5921 e997 c7 *DCP ff 02 99 a5 fb 16944
5922 e999 ea NOP ff 02 99 27 fb 16949
5923 e99a ea NOP ff 02 99 27 fb 16951
5924 e99b ea NOP ff 02 99 27 fb 16953
5925 e99c ea NOP ff 02 99 27 fb 16955
5926 e99d 20 JSR ff 02 99 27 fb 16957
5927 fa47 70 BVS ff 02 99 27 f9 16963
5928 fa49 d0 BNE ff 02 99 27 f9 16965
5929 fa4b 30 BMI ff 02 99 27 f9 16967
5930 fa4d 90 BCC ff 02 99 27 f9 16969
5931 fa4f c9 CMP ff 02 99 27 f9 16971
5932 fa51 d0 BNE ff 02 99 27 f9 16973
5933 fa53 60 RTS ff 02 99 27 f9 16975
5934 e9a0 a5 LDA ff 02 99 27 fb 16981
5935 e9a2 c9 CMP ff 02 99 a5 fb 16984
5936 e9a4 f0 BEQ ff 02 99 27 fb 16986
5937 e9a8 c8 INY ff 02 99 27 fb 16989
5938 e9a9 a9 LDA ff 02 9a a5 fb 16991
5939 e9ab 85 STA 37 02 9a 25 fb 16993
5940 e9ad 20 JSR 37 02 9a 25 fb 16996
5941 fa54 24 BIT 37 02 9a 25 f9 17002
5942 fa56 a9 LDA 37 02 9a e5 f9 17005
5943 fa58 60 RTS f0 02 9a e5 f9 17007
5944 e9b0 c7 *DCP f0 02 9a e5 fb 17013
5945 e9b2 ea NOP f0 02 9a e5 fb 17018
5946 e9b3 ea NOP f0 02 9a e5 fb 17020
5947 e9b4 ea NOP f0 02 9a e5 fb 17022
5948 e9b5 ea NOP f0 02 9a e5 fb 17024
5949 e9b6 20 JSR f0 02 9a e5 fb 17026
5950 fa59 50 BVC f0 02 9a e5 f9 17032
5951 fa5b f0 BEQ f0 02 9a e5 f9 17034
5952 fa5d 10 BPL f0 02 9a e5 f9 17036
5953 fa5f 90 BCC f0 02 9a e5 f9 17038
5954 fa61 c9 CMP f0 02 9a e5 f9 17040
5955 fa63 f0 BEQ f0 02 9a 67 f9 17042
5956 fa67 60 RTS f0 02 9a 67 f9 17045
5957 e9b9 a5 LDA f0 02 9a 67 fb 17051
5958 e9bb c9 CMP 36 02 9a 65 fb 17054
5959 e9bd f0 BEQ 36 02 9a 67 fb 17056
5960 e9c1 c8 INY 36 02 9a 67 fb 17059
5961 e9c2 a9 LDA 36 02 9b e5 fb 17061
5962 e9c4 8d STA eb 02 9b e5 fb 17063
5963 e9c7 20 JSR eb 02 9b e5 fb 17067
5964 fa31 24 BIT eb 02 9b e5 f9 17073
5965 fa33 18 CLC eb 02 9b e5 f9 17076
5966 fa34 a9 LDA eb 02 9b e4 f9 17078
5967 fa36 60 RTS 40 02 9b 64 f9 17080
5968 e9ca cf *DCP 40 02 9b 64 fb 17086
5969 e9cd ea NOP 40 02 9b 64 fb 17092
5970 e9ce ea NOP 40 02 9b 64 fb 17094
5971 e9cf ea NOP 40 02 9b 64 fb 17096
5972 e9d0 ea NOP 40 02 9b 64 fb 17098
5973 e9d1 20 JSR 40 02 9b 64 fb 17100
5974 fa37 50 BVC 40 02 9b 64 f9 17106
5975 fa39 b0 BCS 40 02 9b 64 f9 17108
5976 fa3b 30 BMI 40 02 9b 64 f9 17110
5977 fa3d c9 CMP 40 02 9b 64 f9 17112
5978 fa3f d0 BNE 40 02 9b 67 f9 17114
5979 fa41 60 RTS 40 02 9b 67 f9 17116
5980 e9d4 ad LDA 40 02 9b 67 fb 17122
5981 e9d7 c9 CMP ea 02 9b e5 fb 17126
5982 e9d9 f0 BEQ ea 02 9b 67 fb 17128
5983 e9dd c8 INY ea 02 9b 67 fb 17131
5984 e9de a9 LDA ea 02 9c e5 fb 17133
5985 e9e0 8d STA 00 02 9c 67 fb 17135
5986 e9e3 20 JSR 00 02 9c 67 fb 17139
5987 fa42 b8 CLV 00 02 9c 67 f9 17145
5988 fa43 38 SEC 00 02 9c 27 f9 17147
5989 fa44 a9 LDA 00 02 9c 27 f9 17149
5990 fa46 60 RTS ff 02 9c a5 f9 17151
5991 e9e6 cf *DCP ff 02 9c a5 fb 17157
5992 e9e9 ea NOP ff 02 9c 27 fb 17163
5993 e9ea ea NOP ff 02 9c 27 fb 17165
5994 e9eb ea NOP ff 02 9c 27 fb 17167
5995 e9ec ea NOP ff 02 9c 27 fb 17169
5996 e9ed 20 JSR ff 02 9c 27 fb 17171
5997 fa47 70 BVS ff 02 9c 27 f9 17177
5998 fa49 d0 BNE ff 02 9c 27 f9 17179
5999 fa4b 30 BMI ff 02 9c 27 f9 17181
6000 fa4d 90 BCC ff 02 9c 27 f9 17183
6001 fa4f c9 CMP ff 02 9c 27 f9 17185
6002 fa51 d0 BNE ff 02 9c 27 f9 17187
6003 fa53 60 RTS ff 02 9c 27 f9 17189
6004 e9f0 ad LDA ff 02 9c 27 fb 17195
6005 e9f3 c9 CMP ff 02 9c a5 fb 17199
6006 e9f5 f0 BEQ ff 02 9c 27 fb 17201
6007 e9f9 c8 INY ff 02 9c 27 fb 17204
6008 e9fa a9 LDA ff 02 9d a5 fb 17206
6009 e9fc 8d STA 37 02 9d 25 fb 17208
6010 e9ff 20 JSR 37 02 9d 25 fb 17212
6011 fa54 24 BIT 37 02 9d 25 f9 17218
6012 fa56 a9 LDA 37 02 9d e5 f9 17221
6013 fa58 60 RTS f0 02 9d e5 f9 17223
6014 ea02 cf *DCP f0 02 9d e5 fb 17229
6015 ea05 ea NOP f0 02 9d e5 fb 17235
6016 ea06 ea NOP f0 02 9d e5 fb 17237
6017 ea07 ea NOP f0 02 9d e5 fb 17239
6018 ea08 ea NOP f0 02 9d e5 fb 17241
6019 ea09 20 JSR f0 02 9d e5 fb 17243
6020 fa59 50 BVC f0 02 9d e5 f9 17249
6021 fa5b f0 BEQ f0 02 9d e5 f9 17251
6022 fa5d 10 BPL f0 02 9d e5 f9 17253
6023 fa5f 90 BCC f0 02 9d e5 f9 17255
6024 fa61 c9 CMP f0 02 9d e5 f9 17257
6025 fa63 f0 BEQ f0 02 9d 67 f9 17259
6026 fa67 60 RTS f0 02 9d 67 f9 17262
6027 ea0c ad LDA f0 02 9d 67 fb 17268
6028 ea0f c9 CMP 36 02 9d 65 fb 17272
6029 ea11 f0 BEQ 36 02 9d 67 fb 17274
6030 ea15 a9 LDA 36 02 9d 67 fb 17277
6031 ea17 8d STA eb 02 9d e5 fb 17279
6032 ea1a a9 LDA eb 02 9d e5 fb 17283
6033 ea1c 85 STA 48 02 9d 65 fb 17285
6034 ea1e a9 LDA 48 02 9d 65 fb 17288
6035 ea20 85 STA 05 02 9d 65 fb 17290
6036 ea22 a0 LDY 05 02 9d 65 fb 17293
6037 ea24 20 JSR 05 02 ff e5 fb 17295
6038 fa31 24 BIT 05 02 ff e5 f9 17301
6039 fa33 18 CLC 05 02 ff e5 f9 17304
6040 fa34 a9 LDA 05 02 ff e4 f9 17306
6041 fa36 60 RTS 40 02 ff 64 f9 17308
6042 ea27 d3 *DCP 40 02 ff 64 fb 17314
6043 ea29 ea NOP 40 02 ff 64 fb 17322
6044 ea2a ea NOP 40 02 ff 64 fb 17324
6045 ea2b 08 PHP 40 02 ff 64 fb 17326
6046 ea2c 48 PHA 40 02 ff 64 fa 17329
6047 ea2d a0 LDY 40 02 ff 64 f9 17332
6048 ea2f 68 PLA 40 02 9e e4 f9 17334
6049 ea30 28 PLP 40 02 9e 64 fa 17338
6050 ea31 20 JSR 40 02 9e 64 fb 17342
6051 fa37 50 BVC 40 02 9e 64 f9 17348
6052 fa39 b0 BCS 40 02 9e 64 f9 17350
6053 fa3b 30 BMI 40 02 9e 64 f9 17352
6054 fa3d c9 CMP 40 02 9e 64 f9 17354
6055 fa3f d0 BNE 40 02 9e 67 f9 17356
6056 fa41 60 RTS 40 02 9e 67 f9 17358
6057 ea34 ad LDA 40 02 9e 67 fb 17364
6058 ea37 c9 CMP ea 02 9e e5 fb 17368
6059 ea39 f0 BEQ ea 02 9e 67 fb 17370
6060 ea3d a0 LDY ea 02 9e 67 fb 17373
6061 ea3f a9 LDA ea 02 ff e5 fb 17375
6062 ea41 8d STA 00 02 ff 67 fb 17377
6063 ea44 20 JSR 00 02 ff 67 fb 17381
6064 fa42 b8 CLV 00 02 ff 67 f9 17387
6065 fa43 38 SEC 00 02 ff 27 f9 17389
6066 fa44 a9 LDA 00 02 ff 27 f9 17391
6067 fa46 60 RTS ff 02 ff a5 f9 17393
6068 ea47 d3 *DCP ff 02 ff a5 fb 17399
6069 ea49 ea NOP ff 02 ff 27 fb 17407
6070 ea4a ea NOP ff 02 ff 27 fb 17409
6071 ea4b 08 PHP ff 02 ff 27 fb 17411
6072 ea4c 48 PHA ff 02 ff 27 fa 17414
6073 ea4d a0 LDY ff 02 ff 27 f9 17417
6074 ea4f 68 PLA ff 02 9f a5 f9 17419
6075 ea50 28 PLP ff 02 9f a5 fa 17423
6076 ea51 20 JSR ff 02 9f 27 fb 17427
6077 fa47 70 BVS ff 02 9f 27 f9 17433
6078 fa49 d0 BNE ff 02 9f 27 f9 17435
6079 fa4b 30 BMI ff 02 9f 27 f9 17437
6080 fa4d 90 BCC ff 02 9f 27 f9 17439
6081 fa4f c9 CMP ff 02 9f 27 f9 17441
6082 fa51 d0 BNE ff 02 9f 27 f9 17443
6083 fa53 60 RTS ff 02 9f 27 f9 17445
6084 ea54 ad LDA ff 02 9f 27 fb 17451
6085 ea57 c9 CMP ff 02 9f a5 fb 17455
6086 ea59 f0 BEQ ff 02 9f 27 fb 17457
6087 ea5d a0 LDY ff 02 9f 27 fb 17460
6088 ea5f a9 LDA ff 02 ff a5 fb 17462
6089 ea61 8d STA 37 02 ff 25 fb 17464
6090 ea64 20 JSR 37 02 ff 25 fb 17468
6091 fa54 24 BIT 37 02 ff 25 f9 17474
6092 fa56 a9 LDA 37 02 ff e5 f9 17477
6093 fa58 60 RTS f0 02 ff e5 f9 17479
6094 ea67 d3 *DCP f0 02 ff e5 fb 17485
6095 ea69 ea NOP f0 02 ff e5 fb 17493
6096 ea6a ea NOP f0 02 ff e5 fb 17495
6097 ea6b 08 PHP f0 02 ff e5 fb 17497
6098 ea6c 48 PHA f0 02 ff e5 fa 17500
6099 ea6d a0 LDY f0 02 ff e5 f9 17503
6100 ea6f 68 PLA f0 02 a0 e5 f9 17505
6101 ea70 28 PLP f0 02 a0 e5 fa 17509
6102 ea71 20 JSR f0 02 a0 e5 fb 17513
6103 fa59 50 BVC f0 02 a0 e5 f9 17519
6104 fa5b f0 BEQ f0 02 a0 e5 f9 17521
6105 fa5d 10 BPL f0 02 a0 e5 f9 17523
6106 fa5f 90 BCC f0 02 a0 e5 f9 17525
6107 fa61 c9 CMP f0 02 a0 e5 f9 17527
6108 fa63 f0 BEQ f0 02 a0 67 f9 17529
6109 fa67 60 RTS f0 02 a0 67 f9 17532
6110 ea74 ad LDA f0 02 a0 67 fb 17538
6111 ea77 c9 CMP 36 02 a0 65 fb 17542
6112 ea79 f0 BEQ 36 02 a0 67 fb 17544
6113 ea7d a0 LDY 36 02 a0 67 fb 17547
6114 ea7f a2 LDX 36 02 a1 e5 fb 17549
6115 ea81 a9 LDA 36 ff a1 e5 fb 17551
6116 ea83 85 STA eb ff a1 e5 fb 17553
6117 ea85 20 JSR eb ff a1 e5 fb 17556
6118 fa31 24 BIT eb ff a1 e5 f9 17562
6119 fa33 18 CLC eb ff a1 e5 f9 17565
6120 fa34 a9 LDA eb ff a1 e4 f9 17567
6121 fa36 60 RTS 40 ff a1 64 f9 17569
6122 ea88 d7 *DCP 40 ff a1 64 fb 17575
6123 ea8a ea NOP 40 ff a1 64 fb 17581
6124 ea8b ea NOP 40 ff a1 64 fb 17583
6125 ea8c ea NOP 40 ff a1 64 fb 17585
6126 ea8d ea NOP 40 ff a1 64 fb 17587
6127 ea8e 20 JSR 40 ff a1 64 fb 17589
6128 fa37 50 BVC 40 ff a1 64 f9 17595
6129 fa39 b0 BCS 40 ff a1 64 f9 17597
6130 fa3b 30 BMI 40 ff a1 64 f9 17599
6131 fa3d c9 CMP 40 ff a1 64 f9 17601
6132 fa3f d0 BNE 40 ff a1 67 f9 17603
6133 fa41 60 RTS 40 ff a1 67 f9 17605
6134 ea91 a5 LDA 40 ff a1 67 fb 17611
6135 ea93 c9 CMP ea ff a1 e5 fb 17614
6136 ea95 f0 BEQ ea ff a1 67 fb 17616
6137 ea99 c8 INY ea ff a1 67 fb 17619
6138 ea9a a9 LDA ea ff a2 e5 fb 17621
6139 ea9c 85 STA 00 ff a2 67 fb 17623
6140 ea9e 20 JSR 00 ff a2 67 fb 17626
6141 fa42 b8 CLV 00 ff a2 67 f9 17632
6142 fa43 38 SEC 00 ff a2 27 f9 17634
6143 fa44 a9 LDA 00 ff a2 27 f9 17636
6144 fa46 60 RTS ff ff a2 a5 f9 17638
6145 eaa1 d7 *DCP ff ff a2 a5 fb 17644
6146 eaa3 ea NOP ff ff a2 27 fb 17650
6147 eaa4 ea NOP ff ff a2 27 fb 17652
6148 eaa5 ea NOP ff ff a2 27 fb 17654
6149 eaa6 ea NOP ff ff a2 27 fb 17656
6150 eaa7 20 JSR ff ff a2 27 fb 17658
6151 fa47 70 BVS ff ff a2 27 f9 17664
6152 fa49 d0 BNE ff ff a2 27 f9 17666
6153 fa4b 30 BMI ff ff a2 27 f9 17668
6154 fa4d 90 BCC ff ff a2 27 f9 17670
6155 fa4f c9 CMP ff ff a2 27 f9 17672
6156 fa51 d0 BNE ff ff a2 27 f9 17674
6157 fa53 60 RTS ff ff a2 27 f9 17676
6158 eaaa a5 LDA ff ff a2 27 fb 17682
6159 eaac c9 CMP ff ff a2 a5 fb 17685
6160 eaae f0 BEQ ff ff a2 27 fb 17687
6161 eab2 c8 INY ff ff a2 27 fb 17690
6162 eab3 a9 LDA ff ff a3 a5 fb 17692
6163 eab5 85 STA 37 ff a3 25 fb 17694
6164 eab7 20 JSR 37 ff a3 25 fb 17697
6165 fa54 24 BIT 37 ff a3 25 f9 17703
6166 fa56 a9 LDA 37 ff a3 e5 f9 17706
6167 fa58 60 RTS f0 ff a3 e5 f9 17708
6168 eaba d7 *DCP f0 ff a3 e5 fb 17714
6169 eabc ea NOP f0 ff a3 e5 fb 17720
6170 eabd ea NOP f0 ff a3 e5 fb 17722
6171 eabe ea NOP f0 ff a3 e5 fb 17724
6172 eabf ea NOP f0 ff a3 e5 fb 17726
6173 eac0 20 JSR f0 ff a3 e5 fb 17728
6174 fa59 50 BVC f0 ff a3 e5 f9 17734
6175 fa5b f0 BEQ f0 ff a3 e5 f9 17736
6176 fa5d 10 BPL f0 ff a3 e5 f9 17738
6177 fa5f 90 BCC f0 ff a3 e5 f9 17740
6178 fa61 c9 CMP f0 ff a3 e5 f9 17742
6179 fa63 f0 BEQ f0 ff a3 67 f9 17744
6180 fa67 60 RTS f0 ff a3 67 f9 17747
6181 eac3 a5 LDA f0 ff a3 67 fb 17753
6182 eac5 c9 CMP 36 ff a3 65 fb 17756
6183 eac7 f0 BEQ 36 ff a3 67 fb 17758
6184 eacb a9 LDA 36 ff a3 67 fb 17761
6185 eacd 8d STA eb ff a3 e5 fb 17763
6186 ead0 a0 LDY eb ff a3 e5 fb 17767
6187 ead2 20 JSR eb ff ff e5 fb 17769
6188 fa31 24 BIT eb ff ff e5 f9 17775
6189 fa33 18 CLC eb ff ff e5 f9 17778
6190 fa34 a9 LDA eb ff ff e4 f9 17780
6191 fa36 60 RTS 40 ff ff 64 f9 17782
6192 ead5 db *DCP 40 ff ff 64 fb 17788
6193 ead8 ea NOP 40 ff ff 64 fb 17795
6194 ead9 ea NOP 40 ff ff 64 fb 17797
6195 eada 08 PHP 40 ff ff 64 fb 17799
6196 eadb 48 PHA 40 ff ff 64 fa 17802
6197 eadc a0 LDY 40 ff ff 64 f9 17805
6198 eade 68 PLA 40 ff a4 e4 f9 17807
6199 eadf 28 PLP 40 ff a4 64 fa 17811
6200 eae0 20 JSR 40 ff a4 64 fb 17815
6201 fa37 50 BVC 40 ff a4 64 f9 17821
6202 fa39 b0 BCS 40 ff a4 64 f9 17823
6203 fa3b 30 BMI 40 ff a4 64 f9 17825
6204 fa3d c9 CMP 40 ff a4 64 f9 17827
6205 fa3f d0 BNE 40 ff a4 67 f9 17829
6206 fa41 60 RTS 40 ff a4 67 f9 17831
6207 eae3 ad LDA 40 ff a4 67 fb 17837
6208 eae6 c9 CMP ea ff a4 e5 fb 17841
6209 eae8 f0 BEQ ea ff a4 67 fb 17843
6210 eaec a0 LDY ea ff a4 67 fb 17846
6211 eaee a9 LDA ea ff ff e5 fb 17848
6212 eaf0 8d STA 00 ff ff 67 fb 17850
6213 eaf3 20 JSR 00 ff ff 67 fb 17854
6214 fa42 b8 CLV 00 ff ff 67 f9 17860
6215 fa43 38 SEC 00 ff ff 27 f9 17862
6216 fa44 a9 LDA 00 ff ff 27 f9 17864
6217 fa46 60 RTS ff ff ff a5 f9 17866
6218 eaf6 db *DCP ff ff ff a5 fb 17872
6219 eaf9 ea NOP ff ff ff 27 fb 17879
6220 eafa ea NOP ff ff ff 27 fb 17881
6221 eafb 08 PHP ff ff ff 27 fb 17883
6222 eafc 48 PHA ff ff ff 27 fa 17886
6223 eafd a0 LDY ff ff ff 27 f9 17889
6224 eaff 68 PLA ff ff a5 a5 f9 17891
6225 eb00 28 PLP ff ff a5 a5 fa 17895
6226 eb01 20 JSR ff ff a5 27 fb 17899
6227 fa47 70 BVS ff ff a5 27 f9 17905
6228 fa49 d0 BNE ff ff a5 27 f9 17907
6229 fa4b 30 BMI ff ff a5 27 f9 17909
6230 fa4d 90 BCC ff ff a5 27 f9 17911
6231 fa4f c9 CMP ff ff a5 27 f9 17913
6232 fa51 d0 BNE ff ff a5 27 f9 17915
6233 fa53 60 RTS ff ff a5 27 f9 17917
6234 eb04 ad LDA ff ff a5 27 fb 17923
6235 eb07 c9 CMP ff ff a5 a5 fb 17927
6236 eb09 f0 BEQ ff ff a5 27 fb 17929
6237 eb0d a0 LDY ff ff a5 27 fb 17932
6238 eb0f a9 LDA ff ff ff a5 fb 17934
6239 eb11 8d STA 37 ff ff 25 fb 17936
6240 eb14 20 JSR 37 ff ff 25 fb 17940
6241 fa54 24 BIT 37 ff ff 25 f9 17946
6242 fa56 a9 LDA 37 ff ff e5 f9 17949
6243 fa58 60 RTS f0 ff ff e5 f9 17951
6244 eb17 db *DCP f0 ff ff e5 fb 17957
6245 eb1a ea NOP f0 ff ff e5 fb 17964
6246 eb1b ea NOP f0 ff ff e5 fb 17966
6247 eb1c 08 PHP f0 ff ff e5 fb 17968
6248 eb1d 48 PHA f0 ff ff e5 fa 17971
6249 eb1e a0 LDY f0 ff ff e5 f9 17974
6250 eb20 68 PLA f0 ff a6 e5 f9 17976
6251 eb21 28 PLP f0 ff a6 e5 fa 17980
6252 eb22 20 JSR f0 ff a6 e5 fb 17984
6253 fa59 50 BVC f0 ff a6 e5 f9 17990
6254 fa5b f0 BEQ f0 ff a6 e5 f9 17992
6255 fa5d 10 BPL f0 ff a6 e5 f9 17994
6256 fa5f 90 BCC f0 ff a6 e5 f9 17996
6257 fa61 c9 CMP f0 ff a6 e5 f9 17998
6258 fa63 f0 BEQ f0 ff a6 67 f9 18000
6259 fa67 60 RTS f0 ff a6 67 f9 18003
6260 eb25 ad LDA f0 ff a6 67 fb 18009
6261 eb28 c9 CMP 36 ff a6 65 fb 18013
6262 eb2a f0 BEQ 36 ff a6 67 fb 18015
6263 eb2e a0 LDY 36 ff a6 67 fb 18018
6264 eb30 a2 LDX 36 ff a7 e5 fb 18020
6265 eb32 a9 LDA 36 ff a7 e5 fb 18022
6266 eb34 8d STA eb ff a7 e5 fb 18024
6267 eb37 20 JSR eb ff a7 e5 fb 18028
6268 fa31 24 BIT eb ff a7 e5 f9 18034
6269 fa33 18 CLC eb ff a7 e5 f9 18037
6270 fa34 a9 LDA eb ff a7 e4 f9 18039
6271 fa36 60 RTS 40 ff a7 64 f9 18041
6272 eb3a df *DCP 40 ff a7 64 fb 18047
6273 eb3d ea NOP 40 ff a7 64 fb 18054
6274 eb3e ea NOP 40 ff a7 64 fb 18056
6275 eb3f ea NOP 40 ff a7 64 fb 18058
6276 eb40 ea NOP 40 ff a7 64 fb 18060
6277 eb41 20 JSR 40 ff a7 64 fb 18062
6278 fa37 50 BVC 40 ff a7 64 f9 18068
6279 fa39 b0 BCS 40 ff a7 64 f9 18070
6280 fa3b 30 BMI 40 ff a7 64 f9 18072
6281 fa3d c9 CMP 40 ff a7 64 f9 18074
6282 fa3f d0 BNE 40 ff a7 67 f9 18076
6283 fa41 60 RTS 40 ff a7 67 f9 18078
6284 eb44 ad LDA 40 ff a7 67 fb 18084
6285 eb47 c9 CMP ea ff a7 e5 fb 18088
6286 eb49 f0 BEQ ea ff a7 67 fb 18090
6287 eb4d c8 INY ea ff a7 67 fb 18093
6288 eb4e a9 LDA ea ff a8 e5 fb 18095
6289 eb50 8d STA 00 ff a8 67 fb 18097
6290 eb53 20 JSR 00 ff a8 67 fb 18101
6291 fa42 b8 CLV 00 ff a8 67 f9 18107
6292 fa43 38 SEC 00 ff a8 27 f9 18109
6293 fa44 a9 LDA 00 ff a8 27 f9 18111
6294 fa46 60 RTS ff ff a8 a5 f9 18113
6295 eb56 df *DCP ff ff a8 a5 fb 18119
6296 eb59 ea NOP ff ff a8 27 fb 18126
6297 eb5a ea NOP ff ff a8 27 fb 18128
6298 eb5b ea NOP ff ff a8 27 fb 18130
6299 eb5c ea NOP ff ff a8 27 fb 18132
6300 eb5d 20 JSR ff ff a8 27 fb 18134
6301 fa47 70 BVS ff ff a8 27 f9 18140
6302 fa49 d0 BNE ff ff a8 27 f9 18142
6303 fa4b 30 BMI ff ff a8 27 f9 18144
6304 fa4d 90 BCC ff ff a8 27 f9 18146
6305 fa4f c9 CMP ff ff a8 27 f9 18148
6306 fa51 d0 BNE ff ff a8 27 f9 18150
6307 fa53 60 RTS ff ff a8 27 f9 18152
6308 eb60 ad LDA ff ff a8 27 fb 18158
6309 eb63 c9 CMP ff ff a8 a5 fb 18162
6310 eb65 f0 BEQ ff ff a8 27 fb 18164
6311 eb69 c8 INY ff ff a8 27 fb 18167
6312 eb6a a9 LDA ff ff a9 a5 fb 18169
6313 eb6c 8d STA 37 ff a9 25 fb 18171
6314 eb6f 20 JSR 37 ff a9 25 fb 18175
6315 fa54 24 BIT 37 ff a9 25 f9 18181
6316 fa56 a9 LDA 37 ff a9 e5 f9 18184
6317 fa58 60 RTS f0 ff a9 e5 f9 18186
6318 eb72 df *DCP f0 ff a9 e5 fb 18192
6319 eb75 ea NOP f0 ff a9 e5 fb 18199
6320 eb76 ea NOP f0 ff a9 e5 fb 18201
6321 eb77 ea NOP f0 ff a9 e5 fb 18203
6322 eb78 ea NOP f0 ff a9 e5 fb 18205
6323 eb79 20 JSR f0 ff a9 e5 fb 18207
6324 fa59 50 BVC f0 ff a9 e5 f9 18213
6325 fa5b f0 BEQ f0 ff a9 e5 f9 18215
6326 fa5d 10 BPL f0 ff a9 e5 f9 18217
6327 fa5f 90 BCC f0 ff a9 e5 f9 18219
6328 fa61 c9 CMP f0 ff a9 e5 f9 18221
6329 fa63 f0 BEQ f0 ff a9 67 f9 18223
6330 fa67 60 RTS f0 ff a9 67 f9 18226
6331 eb7c ad LDA f0 ff a9 67 fb 18232
6332 eb7f c9 CMP 36 ff a9 65 fb 18236
6333 eb81 f0 BEQ 36 ff a9 67 fb 18238
6334 eb85 60 RTS 36 ff a9 67 fb 18241
6335 c63e 20 JSR 36 ff a9 67 fd 18247
6336 eb86 a9 LDA 36 ff a9 67 fb 18253
6337 eb88 85 STA ff ff a9 e5 fb 18255
6338 eb8a a0 LDY ff ff a9 e5 fb 18258
6339 eb8c a2 LDX ff ff aa e5 fb 18260
6340 eb8e a9 LDA ff 02 aa 65 fb 18262
6341 eb90 85 STA 47 02 aa 65 fb 18264
6342 eb92 a9 LDA 47 02 aa 65 fb 18267
6343 eb94 85 STA 06 02 aa 65 fb 18269
6344 eb96 a9 LDA 06 02 aa 65 fb 18272
6345 eb98 8d STA eb 02 aa e5 fb 18274
6346 eb9b 20 JSR eb 02 aa e5 fb 18278
6347 fab1 24 BIT eb 02 aa e5 f9 18284
6348 fab3 18 CLC eb 02 aa e5 f9 18287
6349 fab4 a9 LDA eb 02 aa e4 f9 18289
6350 fab6 60 RTS 40 02 aa 64 f9 18291
6351 eb9e e3 *ISB 40 02 aa 64 fb 18297
6352 eba0 ea NOP 53 02 aa 24 fb 18305
6353 eba1 ea NOP 53 02 aa 24 fb 18307
6354 eba2 ea NOP 53 02 aa 24 fb 18309
6355 eba3 ea NOP 53 02 aa 24 fb 18311
6356 eba4 20 JSR 53 02 aa 24 fb 18313
6357 fab7 70 BVS 53 02 aa 24 f9 18319
6358 fab9 b0 BCS 53 02 aa 24 f9 18321
6359 fabb 30 BMI 53 02 aa 24 f9 18323
6360 fabd c9 CMP 53 02 aa 24 f9 18325
6361 fabf d0 BNE 53 02 aa 27 f9 18327
6362 fac1 60 RTS 53 02 aa 27 f9 18329
6363 eba7 ad LDA 53 02 aa 27 fb 18335
6364 ebaa c9 CMP ec 02 aa a5 fb 18339
6365 ebac f0 BEQ ec 02 aa 27 fb 18341
6366 ebb0 c8 INY ec 02 aa 27 fb 18344
6367 ebb1 a9 LDA ec 02 ab a5 fb 18346
6368 ebb3 8d STA ff 02 ab a5 fb 18348
6369 ebb6 20 JSR ff 02 ab a5 fb 18352
6370 fac2 b8 CLV ff 02 ab a5 f9 18358
6371 fac3 38 SEC ff 02 ab a5 f9 18360
6372 fac4 a9 LDA ff 02 ab a5 f9 18362
6373 fac6 60 RTS ff 02 ab a5 f9 18364
6374 ebb9 e3 *ISB ff 02 ab a5 fb 18370
6375 ebbb ea NOP ff 02 ab a5 fb 18378
6376 ebbc ea NOP ff 02 ab a5 fb 18380
6377 ebbd ea NOP ff 02 ab a5 fb 18382
6378 ebbe ea NOP ff 02 ab a5 fb 18384
6379 ebbf 20 JSR ff 02 ab a5 fb 18386
6380 fac7 70 BVS ff 02 ab a5 f9 18392
6381 fac9 f0 BEQ ff 02 ab a5 f9 18394
6382 facb 10 BPL ff 02 ab a5 f9 18396
6383 facd 90 BCC ff 02 ab a5 f9 18398
6384 facf c9 CMP ff 02 ab a5 f9 18400
6385 fad1 d0 BNE ff 02 ab 27 f9 18402
6386 fad3 60 RTS ff 02 ab 27 f9 18404
6387 ebc2 ad LDA ff 02 ab 27 fb 18410
6388 ebc5 c9 CMP 00 02 ab 27 fb 18414
6389 ebc7 f0 BEQ 00 02 ab 27 fb 18416
6390 ebcb c8 INY 00 02 ab 27 fb 18419
6391 ebcc a9 LDA 00 02 ac a5 fb 18421
6392 ebce 8d STA 37 02 ac 25 fb 18423
6393 ebd1 20 JSR 37 02 ac 25 fb 18427
6394 fad4 24 BIT 37 02 ac 25 f9 18433
6395 fad6 38 SEC 37 02 ac e5 f9 18436
6396 fad7 a9 LDA 37 02 ac e5 f9 18438
6397 fad9 60 RTS f0 02 ac e5 f9 18440
6398 ebd4 e3 *ISB f0 02 ac e5 fb 18446
6399 ebd6 ea NOP b8 02 ac a5 fb 18454
6400 ebd7 ea NOP b8 02 ac a5 fb 18456
6401 ebd8 ea NOP b8 02 ac a5 fb 18458
6402 ebd9 ea NOP b8 02 ac a5 fb 18460
6403 ebda 20 JSR b8 02 ac a5 fb 18462
6404 fada 70 BVS b8 02 ac a5 f9 18468
6405 fadc f0 BEQ b8 02 ac a5 f9 18470
6406 fade 10 BPL b8 02 ac a5 f9 18472
6407 fae0 90 BCC b8 02 ac a5 f9 18474
6408 fae2 c9 CMP b8 02 ac a5 f9 18476
6409 fae4 f0 BEQ b8 02 ac 27 f9 18478
6410 fae8 60 RTS b8 02 ac 27 f9 18481
6411 ebdd ad LDA b8 02 ac 27 fb 18487
6412 ebe0 c9 CMP 38 02 ac 25 fb 18491
6413 ebe2 f0 BEQ 38 02 ac 27 fb 18493
6414 ebe6 c8 INY 38 02 ac 27 fb 18496
6415 ebe7 a9 LDA 38 02 ad a5 fb 18498
6416 ebe9 85 STA eb 02 ad a5 fb 18500
6417 ebeb 20 JSR eb 02 ad a5 fb 18503
6418 fab1 24 BIT eb 02 ad a5 f9 18509
6419 fab3 18 CLC eb 02 ad e5 f9 18512
6420 fab4 a9 LDA eb 02 ad e4 f9 18514
6421 fab6 60 RTS 40 02 ad 64 f9 18516
6422 ebee e7 *ISB 40 02 ad 64 fb 18522
6423 ebf0 ea NOP 53 02 ad 24 fb 18527
6424 ebf1 ea NOP 53 02 ad 24 fb 18529
6425 ebf2 ea NOP 53 02 ad 24 fb 18531
6426 ebf3 ea NOP 53 02 ad 24 fb 18533
6427 ebf4 20 JSR 53 02 ad 24 fb 18535
6428 fab7 70 BVS 53 02 ad 24 f9 18541
6429 fab9 b0 BCS 53 02 ad 24 f9 18543
6430 fabb 30 BMI 53 02 ad 24 f9 18545
6431 fabd c9 CMP 53 02 ad 24 f9 18547
6432 fabf d0 BNE 53 02 ad 27 f9 18549
6433 fac1 60 RTS 53 02 ad 27 f9 18551
6434 ebf7 a5 LDA 53 02 ad 27 fb 18557
6435 ebf9 c9 CMP ec 02 ad a5 fb 18560
6436 ebfb f0 BEQ ec 02 ad 27 fb 18562
6437 ebff c8 INY ec 02 ad 27 fb 18565
6438 ec00 a9 LDA ec 02 ae a5 fb 18567
6439 ec02 85 STA ff 02 ae a5 fb 18569
6440 ec04 20 JSR ff 02 ae a5 fb 18572
6441 fac2 b8 CLV ff 02 ae a5 f9 18578
6442 fac3 38 SEC ff 02 ae a5 f9 18580
6443 fac4 a9 LDA ff 02 ae a5 f9 18582
6444 fac6 60 RTS ff 02 ae a5 f9 18584
6445 ec07 e7 *ISB ff 02 ae a5 fb 18590
6446 ec09 ea NOP ff 02 ae a5 fb 18595
6447 ec0a ea NOP ff 02 ae a5 fb 18597
6448 ec0b ea NOP ff 02 ae a5 fb 18599
6449 ec0c ea NOP ff 02 ae a5 fb 18601
6450 ec0d 20 JSR ff 02 ae a5 fb 18603
6451 fac7 70 BVS ff 02 ae a5 f9 18609
6452 fac9 f0 BEQ ff 02 ae a5 f9 18611
6453 facb 10 BPL ff 02 ae a5 f9 18613
6454 facd 90 BCC ff 02 ae a5 f9 18615
6455 facf c9 CMP ff 02 ae a5 f9 18617
6456 fad1 d0 BNE ff 02 ae 27 f9 18619
6457 fad3 60 RTS ff 02 ae 27 f9 18621
6458 ec10 a5 LDA ff 02 ae 27 fb 18627
6459 ec12 c9 CMP 00 02 ae 27 fb 18630
6460 ec14 f0 BEQ 00 02 ae 27 fb 18632
6461 ec18 c8 INY 00 02 ae 27 fb 18635
6462 ec19 a9 LDA 00 02 af a5 fb 18637
6463 ec1b 85 STA 37 02 af 25 fb 18639
6464 ec1d 20 JSR 37 02 af 25 fb 18642
6465 fad4 24 BIT 37 02 af 25 f9 18648
6466 fad6 38 SEC 37 02 af e5 f9 18651
6467 fad7 a9 LDA 37 02 af e5 f9 18653
6468 fad9 60 RTS f0 02 af e5 f9 18655
6469 ec20 e7 *ISB f0 02 af e5 fb 18661
6470 ec22 ea NOP b8 02 af a5 fb 18666
6471 ec23 ea NOP b8 02 af a5 fb 18668
6472 ec24 ea NOP b8 02 af a5 fb 18670
6473 ec25 ea NOP b8 02 af a5 fb 18672
6474 ec26 20 JSR b8 02 af a5 fb 18674
6475 fada 70 BVS b8 02 af a5 f9 18680
6476 fadc f0 BEQ b8 02 af a5 f9 18682
6477 fade 10 BPL b8 02 af a5 f9 18684
6478 fae0 90 BCC b8 02 af a5 f9 18686
6479 fae2 c9 CMP b8 02 af a5 f9 18688
6480 fae4 f0 BEQ b8 02 af 27 f9 18690
6481 fae8 60 RTS b8 02 af 27 f9 18693
6482 ec29 a5 LDA b8 02 af 27 fb 18699
6483 ec2b c9 CMP 38 02 af 25 fb 18702
6484 ec2d f0 BEQ 38 02 af 27 fb 18704
6485 ec31 c8 INY 38 02 af 27 fb 18707
6486 ec32 a9 LDA 38 02 b0 a5 fb 18709
6487 ec34 8d STA eb 02 b0 a5 fb 18711
6488 ec37 20 JSR eb 02 b0 a5 fb 18715
6489 fab1 24 BIT eb 02 b0 a5 f9 18721
6490 fab3 18 CLC eb 02 b0 e5 f9 18724
6491 fab4 a9 LDA eb 02 b0 e4 f9 18726
6492 fab6 60 RTS 40 02 b0 64 f9 18728
6493 ec3a ef *ISB 40 02 b0 64 fb 18734
6494 ec3d ea NOP 53 02 b0 24 fb 18740
6495 ec3e ea NOP 53 02 b0 24 fb 18742
6496 ec3f ea NOP 53 02 b0 24 fb 18744
6497 ec40 ea NOP 53 02 b0 24 fb 18746
6498 ec41 20 JSR 53 02 b0 24 fb 18748
6499 fab7 70 BVS 53 02 b0 24 f9 18754
6500 fab9 b0 BCS 53 02 b0 24 f9 18756
6501 fabb 30 BMI 53 02 b0 24 f9 18758
6502 fabd c9 CMP 53 02 b0 24 f9 18760
6503 fabf d0 BNE 53 02 b0 27 f9 18762
6504 fac1 60 RTS 53 02 b0 27 f9 18764
6505 ec44 ad LDA 53 02 b0 27 fb 18770
6506 ec47 c9 CMP ec 02 b0 a5 fb 18774
6507 ec49 f0 BEQ ec 02 b0 27 fb 18776
6508 ec4d c8 INY ec 02 b0 27 fb 18779
6509 ec4e a9 LDA ec 02 b1 a5 fb 18781
6510 ec50 8d STA ff 02 b1 a5 fb 18783
6511 ec53 20 JSR ff 02 b1 a5 fb 18787
6512 fac2 b8 CLV ff 02 b1 a5 f9 18793
6513 fac3 38 SEC ff 02 b1 a5 f9 18795
6514 fac4 a9 LDA ff 02 b1 a5 f9 18797
6515 fac6 60 RTS ff 02 b1 a5 f9 18799
6516 ec56 ef *ISB ff 02 b1 a5 fb 18805
6517 ec59 ea NOP ff 02 b1 a5 fb 18811
6518 ec5a ea NOP ff 02 b1 a5 fb 18813
6519 ec5b ea NOP ff 02 b1 a5 fb 18815
6520 ec5c ea NOP ff 02 b1 a5 fb 18817
6521 ec5d 20 JSR ff 02 b1 a5 fb 18819
6522 fac7 70 BVS ff 02 b1 a5 f9 18825
6523 fac9 f0 BEQ ff 02 b1 a5 f9 18827
6524 facb 10 BPL ff 02 b1 a5 f9 18829
6525 facd 90 BCC ff 02 b1 a5 f9 18831
6526 facf c9 CMP ff 02 b1 a5 f9 18833
6527 fad1 d0 BNE ff 02 b1 27 f9 18835
6528 fad3 60 RTS ff 02 b1 27 f9 18837
6529 ec60 ad LDA ff 02 b1 27 fb 18843
6530 ec63 c9 CMP 00 02 b1 27 fb 18847
6531 ec65 f0 BEQ 00 02 b1 27 fb 18849
6532 ec69 c8 INY 00 02 b1 27 fb 18852
6533 ec6a a9 LDA 00 02 b2 a5 fb 18854
6534 ec6c 8d STA 37 02 b2 25 fb 18856
6535 ec6f 20 JSR 37 02 b2 25 fb 18860
6536 fad4 24 BIT 37 02 b2 25 f9 18866
6537 fad6 38 SEC 37 02 b2 e5 f9 18869
6538 fad7 a9 LDA 37 02 b2 e5 f9 18871
6539 fad9 60 RTS f0 02 b2 e5 f9 18873
6540 ec72 ef *ISB f0 02 b2 e5 fb 18879
6541 ec75 ea NOP b8 02 b2 a5 fb 18885
6542 ec76 ea NOP b8 02 b2 a5 fb 18887
6543 ec77 ea NOP b8 02 b2 a5 fb 18889
6544 ec78 ea NOP b8 02 b2 a5 fb 18891
6545 ec79 20 JSR b8 02 b2 a5 fb 18893
6546 fada 70 BVS b8 02 b2 a5 f9 18899
6547 fadc f0 BEQ b8 02 b2 a5 f9 18901
6548 fade 10 BPL b8 02 b2 a5 f9 18903
6549 fae0 90 BCC b8 02 b2 a5 f9 18905
6550 fae2 c9 CMP b8 02 b2 a5 f9 18907
6551 fae4 f0 BEQ b8 02 b2 27 f9 18909
6552 fae8 60 RTS b8 02 b2 27 f9 18912
6553 ec7c ad LDA b8 02 b2 27 fb 18918
6554 ec7f c9 CMP 38 02 b2 25 fb 18922
6555 ec81 f0 BEQ 38 02 b2 27 fb 18924
6556 ec85 a9 LDA 38 02 b2 27 fb 18927
6557 ec87 8d STA eb 02 b2 a5 fb 18929
6558 ec8a a9 LDA eb 02 b2 a5 fb 18933
6559 ec8c 85 STA 48 02 b2 25 fb 18935
6560 ec8e a9 LDA 48 02 b2 25 fb 18938
6561 ec90 85 STA 05 02 b2 25 fb 18940
6562 ec92 a0 LDY 05 02 b2 25 fb 18943
6563 ec94 20 JSR 05 02 ff a5 fb 18945
6564 fab1 24 BIT 05 02 ff a5 f9 18951
6565 fab3 18 CLC 05 02 ff e5 f9 18954
6566 fab4 a9 LDA 05 02 ff e4 f9 18956
6567 fab6 60 RTS 40 02 ff 64 f9 18958
6568 ec97 f3 *ISB 40 02 ff 64 fb 18964
6569 ec99 ea NOP 53 02 ff 24 fb 18972
6570 ec9a ea NOP 53 02 ff 24 fb 18974
6571 ec9b 08 PHP 53 02 ff 24 fb 18976
6572 ec9c 48 PHA 53 02 ff 24 fa 18979
6573 ec9d a0 LDY 53 02 ff 24 f9 18982
6574 ec9f 68 PLA 53 02 b3 a4 f9 18984
6575 eca0 28 PLP 53 02 b3 24 fa 18988
6576 eca1 20 JSR 53 02 b3 24 fb 18992
6577 fab7 70 BVS 53 02 b3 24 f9 18998
6578 fab9 b0 BCS 53 02 b3 24 f9 19000
6579 fabb 30 BMI 53 02 b3 24 f9 19002
6580 fabd c9 CMP 53 02 b3 24 f9 19004
6581 fabf d0 BNE 53 02 b3 27 f9 19006
6582 fac1 60 RTS 53 02 b3 27 f9 19008
6583 eca4 ad LDA 53 02 b3 27 fb 19014
6584 eca7 c9 CMP ec 02 b3 a5 fb 19018
6585 eca9 f0 BEQ ec 02 b3 27 fb 19020
6586 ecad a0 LDY ec 02 b3 27 fb 19023
6587 ecaf a9 LDA ec 02 ff a5 fb 19025
6588 ecb1 8d STA ff 02 ff a5 fb 19027
6589 ecb4 20 JSR ff 02 ff a5 fb 19031
6590 fac2 b8 CLV ff 02 ff a5 f9 19037
6591 fac3 38 SEC ff 02 ff a5 f9 19039
6592 fac4 a9 LDA ff 02 ff a5 f9 19041
6593 fac6 60 RTS ff 02 ff a5 f9 19043
6594 ecb7 f3 *ISB ff 02 ff a5 fb 19049
6595 ecb9 ea NOP ff 02 ff a5 fb 19057
6596 ecba ea NOP ff 02 ff a5 fb 19059
6597 ecbb 08 PHP ff 02 ff a5 fb 19061
6598 ecbc 48 PHA ff 02 ff a5 fa 19064
6599 ecbd a0 LDY ff 02 ff a5 f9 19067
6600 ecbf 68 PLA ff 02 b4 a5 f9 19069
6601 ecc0 28 PLP ff 02 b4 a5 fa 19073
6602 ecc1 20 JSR ff 02 b4 a5 fb 19077
6603 fac7 70 BVS ff 02 b4 a5 f9 19083
6604 fac9 f0 BEQ ff 02 b4 a5 f9 19085
6605 facb 10 BPL ff 02 b4 a5 f9 19087
6606 facd 90 BCC ff 02 b4 a5 f9 19089
6607 facf c9 CMP ff 02 b4 a5 f9 19091
6608 fad1 d0 BNE ff 02 b4 27 f9 19093
6609 fad3 60 RTS ff 02 b4 27 f9 19095
6610 ecc4 ad LDA ff 02 b4 27 fb 19101
6611 ecc7 c9 CMP 00 02 b4 27 fb 19105
6612 ecc9 f0 BEQ 00 02 b4 27 fb 19107
6613 eccd a0 LDY 00 02 b4 27 fb 19110
6614 eccf a9 LDA 00 02 ff a5 fb 19112
6615 ecd1 8d STA 37 02 ff 25 fb 19114
6616 ecd4 20 JSR 37 02 ff 25 fb 19118
6617 fad4 24 BIT 37 02 ff 25 f9 19124
6618 fad6 38 SEC 37 02 ff e5 f9 19127
6619 fad7 a9 LDA 37 02 ff e5 f9 19129
6620 fad9 60 RTS f0 02 ff e5 f9 19131
6621 ecd7 f3 *ISB f0 02 ff e5 fb 19137
6622 ecd9 ea NOP b8 02 ff a5 fb 19145
6623 ecda ea NOP b8 02 ff a5 fb 19147
6624 ecdb 08 PHP b8 02 ff a5 fb 19149
6625 ecdc 48 PHA b8 02 ff a5 fa 19152
6626 ecdd a0 LDY b8 02 ff a5 f9 19155
6627 ecdf 68 PLA b8 02 b5 a5 f9 19157
6628 ece0 28 PLP b8 02 b5 a5 fa 19161
6629 ece1 20 JSR b8 02 b5 a5 fb 19165
6630 fada 70 BVS b8 02 b5 a5 f9 19171
6631 fadc f0 BEQ b8 02 b5 a5 f9 19173
6632 fade 10 BPL b8 02 b5 a5 f9 19175
6633 fae0 90 BCC b8 02 b5 a5 f9 19177
6634 fae2 c9 CMP b8 02 b5 a5 f9 19179
6635 fae4 f0 BEQ b8 02 b5 27 f9 19181
6636 fae8 60 RTS b8 02 b5 27 f9 19184
6637 ece4 ad LDA b8 02 b5 27 fb 19190
6638 ece7 c9 CMP 38 02 b5 25 fb 19194
6639 ece9 f0 BEQ 38 02 b5 27 fb 19196
6640 eced a0 LDY 38 02 b5 27 fb 19199
6641 ecef a2 LDX 38 02 b6 a5 fb 19201
6642 ecf1 a9 LDA 38 ff b6 a5 fb 19203
6643 ecf3 85 STA eb ff b6 a5 fb 19205
6644 ecf5 20 JSR eb ff b6 a5 fb 19208
6645 fab1 24 BIT eb ff b6 a5 f9 19214
6646 fab3 18 CLC eb ff b6 e5 f9 19217
6647 fab4 a9 LDA eb ff b6 e4 f9 19219
6648 fab6 60 RTS 40 ff b6 64 f9 19221
6649 ecf8 f7 *ISB 40 ff b6 64 fb 19227
6650 ecfa ea NOP 53 ff b6 24 fb 19233
6651 ecfb ea NOP 53 ff b6 24 fb 19235
6652 ecfc ea NOP 53 ff b6 24 fb 19237
6653 ecfd ea NOP 53 ff b6 24 fb 19239
6654 ecfe 20 JSR 53 ff b6 24 fb 19241
6655 fab7 70 BVS 53 ff b6 24 f9 19247
6656 fab9 b0 BCS 53 ff b6 24 f9 19249
6657 fabb 30 BMI 53 ff b6 24 f9 19251
6658 fabd c9 CMP 53 ff b6 24 f9 19253
6659 fabf d0 BNE 53 ff b6 27 f9 19255
6660 fac1 60 RTS 53 ff b6 27 f9 19257
6661 ed01 a5 LDA 53 ff b6 27 fb 19263
6662 ed03 c9 CMP ec ff b6 a5 fb 19266
6663 ed05 f0 BEQ ec ff b6 27 fb 19268
6664 ed09 c8 INY ec ff b6 27 fb 19271
6665 ed0a a9 LDA ec ff b7 a5 fb 19273
6666 ed0c 85 STA ff ff b7 a5 fb 19275
6667 ed0e 20 JSR ff ff b7 a5 fb 19278
6668 fac2 b8 CLV ff ff b7 a5 f9 19284
6669 fac3 38 SEC ff ff b7 a5 f9 19286
6670 fac4 a9 LDA ff ff b7 a5 f9 19288
6671 fac6 60 RTS ff ff b7 a5 f9 19290
6672 ed11 f7 *ISB ff ff b7 a5 fb 19296
6673 ed13 ea NOP ff ff b7 a5 fb 19302
6674 ed14 ea NOP ff ff b7 a5 fb 19304
6675 ed15 ea NOP ff ff b7 a5 fb 19306
6676 ed16 ea NOP ff ff b7 a5 fb 19308
6677 ed17 20 JSR ff ff b7 a5 fb 19310
6678 fac7 70 BVS ff ff b7 a5 f9 19316
6679 fac9 f0 BEQ ff ff b7 a5 f9 19318
6680 facb 10 BPL ff ff b7 a5 f9 19320
6681 facd 90 BCC ff ff b7 a5 f9 19322
6682 facf c9 CMP ff ff b7 a5 f9 19324
6683 fad1 d0 BNE ff ff b7 27 f9 19326
6684 fad3 60 RTS ff ff b7 27 f9 19328
6685 ed1a a5 LDA ff ff b7 27 fb 19334
6686 ed1c c9 CMP 00 ff b7 27 fb 19337
6687 ed1e f0 BEQ 00 ff b7 27 fb 19339
6688 ed22 c8 INY 00 ff b7 27 fb 19342
6689 ed23 a9 LDA 00 ff b8 a5 fb 19344
6690 ed25 85 STA 37 ff b8 25 fb 19346
6691 ed27 20 JSR 37 ff b8 25 fb 19349
6692 fad4 24 BIT 37 ff b8 25 f9 19355
6693 fad6 38 SEC 37 ff b8 e5 f9 19358
6694 fad7 a9 LDA 37 ff b8 e5 f9 19360
6695 fad9 60 RTS f0 ff b8 e5 f9 19362
6696 ed2a f7 *ISB f0 ff b8 e5 fb 19368
6697 ed2c ea NOP b8 ff b8 a5 fb 19374
6698 ed2d ea NOP b8 ff b8 a5 fb 19376
6699 ed2e ea NOP b8 ff b8 a5 fb 19378
6700 ed2f ea NOP b8 ff b8 a5 fb 19380
6701 ed30 20 JSR b8 ff b8 a5 fb 19382
6702 fada 70 BVS b8 ff b8 a5 f9 19388
6703 fadc f0 BEQ b8 ff b8 a5 f9 19390
6704 fade 10 BPL b8 ff b8 a5 f9 19392
6705 fae0 90 BCC b8 ff b8 a5 f9 19394
6706 fae2 c9 CMP b8 ff b8 a5 f9 19396
6707 fae4 f0 BEQ b8 ff b8 27 f9 19398
6708 fae8 60 RTS b8 ff b8 27 f9 19401
6709 ed33 a5 LDA b8 ff b8 27 fb 19407
6710 ed35 c9 CMP 38 ff b8 25 fb 19410
6711 ed37 f0 BEQ 38 ff b8 27 fb 19412
6712 ed3b a9 LDA 38 ff b8 27 fb 19415
6713 ed3d 8d STA eb ff b8 a5 fb 19417
6714 ed40 a0 LDY eb ff b8 a5 fb 19421
6715 ed42 20 JSR eb ff ff a5 fb 19423
6716 fab1 24 BIT eb ff ff a5 f9 19429
6717 fab3 18 CLC eb ff ff e5 f9 19432
6718 fab4 a9 LDA eb ff ff e4 f9 19434
6719 fab6 60 RTS 40 ff ff 64 f9 19436
6720 ed45 fb *ISB 40 ff ff 64 fb 19442
6721 ed48 ea NOP 53 ff ff 24 fb 19449
6722 ed49 ea NOP 53 ff ff 24 fb 19451
6723 ed4a 08 PHP 53 ff ff 24 fb 19453
6724 ed4b 48 PHA 53 ff ff 24 fa 19456
6725 ed4c a0 LDY 53 ff ff 24 f9 19459
6726 ed4e 68 PLA 53 ff b9 a4 f9 19461
6727 ed4f 28 PLP 53 ff b9 24 fa 19465
6728 ed50 20 JSR 53 ff b9 24 fb 19469
6729 fab7 70 BVS 53 ff b9 24 f9 19475
6730 fab9 b0 BCS 53 ff b9 24 f9 19477
6731 fabb 30 BMI 53 ff b9 24 f9 19479
6732 fabd c9 CMP 53 ff b9 24 f9 19481
6733 fabf d0 BNE 53 ff b9 27 f9 19483
6734 fac1 60 RTS 53 ff b9 27 f9 19485
6735 ed53 ad LDA 53 ff b9 27 fb 19491
6736 ed56 c9 CMP ec ff b9 a5 fb 19495
6737 ed58 f0 BEQ ec ff b9 27 fb 19497
6738 ed5c a0 LDY ec ff b9 27 fb 19500
6739 ed5e a9 LDA ec ff ff a5 fb 19502
6740 ed60 8d STA ff ff ff a5 fb 19504
6741 ed63 20 JSR ff ff ff a5 fb 19508
6742 fac2 b8 CLV ff ff ff a5 f9 19514
6743 fac3 38 SEC ff ff ff a5 f9 19516
6744 fac4 a9 LDA ff ff ff a5 f9 19518
6745 fac6 60 RTS ff ff ff a5 f9 19520
6746 ed66 fb *ISB ff ff ff a5 fb 19526
6747 ed69 ea NOP ff ff ff a5 fb 19533
6748 ed6a ea NOP ff ff ff a5 fb 19535
6749 ed6b 08 PHP ff ff ff a5 fb 19537
6750 ed6c 48 PHA ff ff ff a5 fa 19540
6751 ed6d a0 LDY ff ff ff a5 f9 19543
6752 ed6f 68 PLA ff ff ba a5 f9 19545
6753 ed70 28 PLP ff ff ba a5 fa 19549
6754 ed71 20 JSR ff ff ba a5 fb 19553
6755 fac7 70 BVS ff ff ba a5 f9 19559
6756 fac9 f0 BEQ ff ff ba a5 f9 19561
6757 facb 10 BPL ff ff ba a5 f9 19563
6758 facd 90 BCC ff ff ba a5 f9 19565
6759 facf c9 CMP ff ff ba a5 f9 19567
6760 fad1 d0 BNE ff ff ba 27 f9 19569
6761 fad3 60 RTS ff ff ba 27 f9 19571
6762 ed74 ad LDA ff ff ba 27 fb 19577
6763 ed77 c9 CMP 00 ff ba 27 fb 19581
6764 ed79 f0 BEQ 00 ff ba 27 fb 19583
6765 ed7d a0 LDY 00 ff ba 27 fb 19586
6766 ed7f a9 LDA 00 ff ff a5 fb 19588
6767 ed81 8d STA 37 ff ff 25 fb 19590
6768 ed84 20 JSR 37 ff ff 25 fb 19594
6769 fad4 24 BIT 37 ff ff 25 f9 19600
6770 fad6 38 SEC 37 ff ff e5 f9 19603
6771 fad7 a9 LDA 37 ff ff e5 f9 19605
6772 fad9 60 RTS f0 ff ff e5 f9 19607
6773 ed87 fb *ISB f0 ff ff e5 fb 19613
6774 ed8a ea NOP b8 ff ff a5 fb 19620
6775 ed8b ea NOP b8 ff ff a5 fb 19622
6776 ed8c 08 PHP b8 ff ff a5 fb 19624
6777 ed8d 48 PHA b8 ff ff a5 fa 19627
6778 ed8e a0 LDY b8 ff ff a5 f9 19630
6779 ed90 68 PLA b8 ff bb a5 f9 19632
6780 ed91 28 PLP b8 ff bb a5 fa 19636
6781 ed92 20 JSR b8 ff bb a5 fb 19640
6782 fada 70 BVS b8 ff bb a5 f9 19646
6783 fadc f0 BEQ b8 ff bb a5 f9 19648
6784 fade 10 BPL b8 ff bb a5 f9 19650
6785 fae0 90 BCC b8 ff bb a5 f9 19652
6786 fae2 c9 CMP b8 ff bb a5 f9 19654
6787 fae4 f0 BEQ b8 ff bb 27 f9 19656
6788 fae8 60 RTS b8 ff bb 27 f9 19659
6789 ed95 ad LDA b8 ff bb 27 fb 19665
6790 ed98 c9 CMP 38 ff bb 25 fb 19669
6791 ed9a f0 BEQ 38 ff bb 27 fb 19671
6792 ed9e a0 LDY 38 ff bb 27 fb 19674
6793 eda0 a2 LDX 38 ff bc a5 fb 19676
6794 eda2 a9 LDA 38 ff bc a5 fb 19678
6795 eda4 8d STA eb ff bc a5 fb 19680
6796 eda7 20 JSR eb ff bc a5 fb 19684
6797 fab1 24 BIT eb ff bc a5 f9 19690
6798 fab3 18 CLC eb ff bc e5 f9 19693
6799 fab4 a9 LDA eb ff bc e4 f9 19695
6800 fab6 60 RTS 40 ff bc 64 f9 19697
6801 edaa ff *ISB 40 ff bc 64 fb 19703
6802 edad ea NOP 53 ff bc 24 fb 19710
6803 edae ea NOP 53 ff bc 24 fb 19712
6804 edaf ea NOP 53 ff bc 24 fb 19714
6805 edb0 ea NOP 53 ff bc 24 fb 19716
6806 edb1 20 JSR 53 ff bc 24 fb 19718
6807 fab7 70 BVS 53 ff bc 24 f9 19724
6808 fab9 b0 BCS 53 ff bc 24 f9 19726
6809 fabb 30 BMI 53 ff bc 24 f9 19728
6810 fabd c9 CMP 53 ff bc 24 f9 19730
6811 fabf d0 BNE 53 ff bc 27 f9 19732
6812 fac1 60 RTS 53 ff bc 27 f9 19734
6813 edb4 ad LDA 53 ff bc 27 fb 19740
6814 edb7 c9 CMP ec ff bc a5 fb 19744
6815 edb9 f0 BEQ ec ff bc 27 fb 19746
6816 edbd c8 INY ec ff bc 27 fb 19749
6817 edbe a9 LDA ec ff bd a5 fb 19751
6818 edc0 8d STA ff ff bd a5 fb 19753
6819 edc3 20 JSR ff ff bd a5 fb 19757
6820 fac2 b8 CLV ff ff bd a5 f9 19763
6821 fac3 38 SEC ff ff bd a5 f9 19765
6822 fac4 a9 LDA ff ff bd a5 f9 19767
6823 fac6 60 RTS ff ff bd a5 f9 19769
6824 edc6 ff *ISB ff ff bd a5 fb 19775
6825 edc9 ea NOP ff ff bd a5 fb 19782
6826 edca ea NOP ff ff bd a5 fb 19784
6827 edcb ea NOP ff ff bd a5 fb 19786
6828 edcc ea NOP ff ff bd a5 fb 19788
6829 edcd 20 JSR ff ff bd a5 fb 19790
6830 fac7 70 BVS ff ff bd a5 f9 19796
6831 fac9 f0 BEQ ff ff bd a5 f9 19798
6832 facb 10 BPL ff ff bd a5 f9 19800
6833 facd 90 BCC ff ff bd a5 f9 19802
6834 facf c9 CMP ff ff bd a5 f9 19804
6835 fad1 d0 BNE ff ff bd 27 f9 19806
6836 fad3 60 RTS ff ff bd 27 f9 19808
6837 edd0 ad LDA ff ff bd 27 fb 19814
6838 edd3 c9 CMP 00 ff bd 27 fb 19818
6839 edd5 f0 BEQ 00 ff bd 27 fb 19820
6840 edd9 c8 INY 00 ff bd 27 fb 19823
6841 edda a9 LDA 00 ff be a5 fb 19825
6842 eddc 8d STA 37 ff be 25 fb 19827
6843 eddf 20 JSR 37 ff be 25 fb 19831
6844 fad4 24 BIT 37 ff be 25 f9 19837
6845 fad6 38 SEC 37 ff be e5 f9 19840
6846 fad7 a9 LDA 37 ff be e5 f9 19842
6847 fad9 60 RTS f0 ff be e5 f9 19844
6848 ede2 ff *ISB f0 ff be e5 fb 19850
6849 ede5 ea NOP b8 ff be a5 fb 19857
6850 ede6 ea NOP b8 ff be a5 fb 19859
6851 ede7 ea NOP b8 ff be a5 fb 19861
6852 ede8 ea NOP b8 ff be a5 fb 19863
6853 ede9 20 JSR b8 ff be a5 fb 19865
6854 fada 70 BVS b8 ff be a5 f9 19871
6855 fadc f0 BEQ b8 ff be a5 f9 19873
6856 fade 10 BPL b8 ff be a5 f9 19875
6857 fae0 90 BCC b8 ff be a5 f9 19877
6858 fae2 c9 CMP b8 ff be a5 f9 19879
6859 fae4 f0 BEQ b8 ff be 27 f9 19881
6860 fae8 60 RTS b8 ff be 27 f9 19884
6861 edec ad LDA b8 ff be 27 fb 19890
6862 edef c9 CMP 38 ff be 25 fb 19894
6863 edf1 f0 BEQ 38 ff be 27 fb 19896
6864 edf5 60 RTS 38 ff be 27 fb 19899
6865 c641 20 JSR 38 ff be 27 fd 19905
6866 edf6 a9 LDA 38 ff be 27 fb 19911
6867 edf8 85 STA ff ff be a5 fb 19913
6868 edfa a0 LDY ff ff be a5 fb 19916
6869 edfc a2 LDX ff ff bf a5 fb 19918
6870 edfe a9 LDA ff 02 bf 25 fb 19920
6871 ee00 85 STA 47 02 bf 25 fb 19922
6872 ee02 a9 LDA 47 02 bf 25 fb 19925
6873 ee04 85 STA 06 02 bf 25 fb 19927
6874 ee06 a9 LDA 06 02 bf 25 fb 19930
6875 ee08 8d STA a5 02 bf a5 fb 19932
6876 ee0b 20 JSR a5 02 bf a5 fb 19936
6877 fa7b 24 BIT a5 02 bf a5 f9 19942
6878 fa7d 18 CLC a5 02 bf e5 f9 19945
6879 fa7e a9 LDA a5 02 bf e4 f9 19947
6880 fa80 60 RTS b3 02 bf e4 f9 19949
6881 ee0e 03 *SLO b3 02 bf e4 fb 19955
6882 ee10 ea NOP fb 02 bf e5 fb 19963
6883 ee11 ea NOP fb 02 bf e5 fb 19965
6884 ee12 ea NOP fb 02 bf e5 fb 19967
6885 ee13 ea NOP fb 02 bf e5 fb 19969
6886 ee14 20 JSR fb 02 bf e5 fb 19971
6887 fa81 50 BVC fb 02 bf e5 f9 19977
6888 fa83 90 BCC fb 02 bf e5 f9 19979
6889 fa85 10 BPL fb 02 bf e5 f9 19981
6890 fa87 c9 CMP fb 02 bf e5 f9 19983
6891 fa89 d0 BNE fb 02 bf 67 f9 19985
6892 fa8b 60 RTS fb 02 bf 67 f9 19987
6893 ee17 ad LDA fb 02 bf 67 fb 19993
6894 ee1a c9 CMP 4a 02 bf 65 fb 19997
6895 ee1c f0 BEQ 4a 02 bf 67 fb 19999
6896 ee20 c8 INY 4a 02 bf 67 fb 20002
6897 ee21 a9 LDA 4a 02 c0 e5 fb 20004
6898 ee23 8d STA 29 02 c0 65 fb 20006
6899 ee26 20 JSR 29 02 c0 65 fb 20010
6900 fa8c b8 CLV 29 02 c0 65 f9 20016
6901 fa8d 18 CLC 29 02 c0 25 f9 20018
6902 fa8e a9 LDA 29 02 c0 24 f9 20020
6903 fa90 60 RTS c3 02 c0 a4 f9 20022
6904 ee29 03 *SLO c3 02 c0 a4 fb 20028
6905 ee2b ea NOP d3 02 c0 a4 fb 20036
6906 ee2c ea NOP d3 02 c0 a4 fb 20038
6907 ee2d ea NOP d3 02 c0 a4 fb 20040
6908 ee2e ea NOP d3 02 c0 a4 fb 20042
6909 ee2f 20 JSR d3 02 c0 a4 fb 20044
6910 fa91 70 BVS d3 02 c0 a4 f9 20050
6911 fa93 f0 BEQ d3 02 c0 a4 f9 20052
6912 fa95 10 BPL d3 02 c0 a4 f9 20054
6913 fa97 b0 BCS d3 02 c0 a4 f9 20056
6914 fa99 c9 CMP d3 02 c0 a4 f9 20058
6915 fa9b d0 BNE d3 02 c0 27 f9 20060
6916 fa9d 60 RTS d3 02 c0 27 f9 20062
6917 ee32 ad LDA d3 02 c0 27 fb 20068
6918 ee35 c9 CMP 52 02 c0 25 fb 20072
6919 ee37 f0 BEQ 52 02 c0 27 fb 20074
6920 ee3b c8 INY 52 02 c0 27 fb 20077
6921 ee3c a9 LDA 52 02 c1 a5 fb 20079
6922 ee3e 8d STA 37 02 c1 25 fb 20081
6923 ee41 20 JSR 37 02 c1 25 fb 20085
6924 fa9e 24 BIT 37 02 c1 25 f9 20091
6925 faa0 38 SEC 37 02 c1 e5 f9 20094
6926 faa1 a9 LDA 37 02 c1 e5 f9 20096
6927 faa3 60 RTS 10 02 c1 65 f9 20098
6928 ee44 03 *SLO 10 02 c1 65 fb 20104
6929 ee46 ea NOP 7e 02 c1 64 fb 20112
6930 ee47 ea NOP 7e 02 c1 64 fb 20114
6931 ee48 ea NOP 7e 02 c1 64 fb 20116
6932 ee49 ea NOP 7e 02 c1 64 fb 20118
6933 ee4a 20 JSR 7e 02 c1 64 fb 20120
6934 faa4 50 BVC 7e 02 c1 64 f9 20126
6935 faa6 f0 BEQ 7e 02 c1 64 f9 20128
6936 faa8 30 BMI 7e 02 c1 64 f9 20130
6937 faaa b0 BCS 7e 02 c1 64 f9 20132
6938 faac c9 CMP 7e 02 c1 64 f9 20134
6939 faae d0 BNE 7e 02 c1 67 f9 20136
6940 fab0 60 RTS 7e 02 c1 67 f9 20138
6941 ee4d ad LDA 7e 02 c1 67 fb 20144
6942 ee50 c9 CMP 6e 02 c1 65 fb 20148
6943 ee52 f0 BEQ 6e 02 c1 67 fb 20150
6944 ee56 c8 INY 6e 02 c1 67 fb 20153
6945 ee57 a9 LDA 6e 02 c2 e5 fb 20155
6946 ee59 85 STA a5 02 c2 e5 fb 20157
6947 ee5b 20 JSR a5 02 c2 e5 fb 20160
6948 fa7b 24 BIT a5 02 c2 e5 f9 20166
6949 fa7d 18 CLC a5 02 c2 e5 f9 20169
6950 fa7e a9 LDA a5 02 c2 e4 f9 20171
6951 fa80 60 RTS b3 02 c2 e4 f9 20173
6952 ee5e 07 *SLO b3 02 c2 e4 fb 20179
6953 ee60 ea NOP fb 02 c2 e5 fb 20184
6954 ee61 ea NOP fb 02 c2 e5 fb 20186
6955 ee62 ea NOP fb 02 c2 e5 fb 20188
6956 ee63 ea NOP fb 02 c2 e5 fb 20190
6957 ee64 20 JSR fb 02 c2 e5 fb 20192
6958 fa81 50 BVC fb 02 c2 e5 f9 20198
6959 fa83 90 BCC fb 02 c2 e5 f9 20200
6960 fa85 10 BPL fb 02 c2 e5 f9 20202
6961 fa87 c9 CMP fb 02 c2 e5 f9 20204
6962 fa89 d0 BNE fb 02 c2 67 f9 20206
6963 fa8b 60 RTS fb 02 c2 67 f9 20208
6964 ee67 a5 LDA fb 02 c2 67 fb 20214
6965 ee69 c9 CMP 4a 02 c2 65 fb 20217
6966 ee6b f0 BEQ 4a 02 c2 67 fb 20219
6967 ee6f c8 INY 4a 02 c2 67 fb 20222
6968 ee70 a9 LDA 4a 02 c3 e5 fb 20224
6969 ee72 85 STA 29 02 c3 65 fb 20226
6970 ee74 20 JSR 29 02 c3 65 fb 20229
6971 fa8c b8 CLV 29 02 c3 65 f9 20235
6972 fa8d 18 CLC 29 02 c3 25 f9 20237
6973 fa8e a9 LDA 29 02 c3 24 f9 20239
6974 fa90 60 RTS c3 02 c3 a4 f9 20241
6975 ee77 07 *SLO c3 02 c3 a4 fb 20247
6976 ee79 ea NOP d3 02 c3 a4 fb 20252
6977 ee7a ea NOP d3 02 c3 a4 fb 20254
6978 ee7b ea NOP d3 02 c3 a4 fb 20256
6979 ee7c ea NOP d3 02 c3 a4 fb 20258
6980 ee7d 20 JSR d3 02 c3 a4 fb 20260
6981 fa91 70 BVS d3 02 c3 a4 f9 20266
6982 fa93 f0 BEQ d3 02 c3 a4 f9 20268
6983 fa95 10 BPL d3 02 c3 a4 f9 20270
6984 fa97 b0 BCS d3 02 c3 a4 f9 20272
6985 fa99 c9 CMP d3 02 c3 a4 f9 20274
6986 fa9b d0 BNE d3 02 c3 27 f9 20276
6987 fa9d 60 RTS d3 02 c3 27 f9 20278
6988 ee80 a5 LDA d3 02 c3 27 fb 20284
6989 ee82 c9 CMP 52 02 c3 25 fb 20287
6990 ee84 f0 BEQ 52 02 c3 27 fb 20289
6991 ee88 c8 INY 52 02 c3 27 fb 20292
6992 ee89 a9 LDA 52 02 c4 a5 fb 20294
6993 ee8b 85 STA 37 02 c4 25 fb 20296
6994 ee8d 20 JSR 37 02 c4 25 fb 20299
6995 fa9e 24 BIT 37 02 c4 25 f9 20305
6996 faa0 38 SEC 37 02 c4 e5 f9 20308
6997 faa1 a9 LDA 37 02 c4 e5 f9 20310
6998 faa3 60 RTS 10 02 c4 65 f9 20312
6999 ee90 07 *SLO 10 02 c4 65 fb 20318
7000 ee92 ea NOP 7e 02 c4 64 fb 20323
7001 ee93 ea NOP 7e 02 c4 64 fb 20325
7002 ee94 ea NOP 7e 02 c4 64 fb 20327
7003 ee95 ea NOP 7e 02 c4 64 fb 20329
7004 ee96 20 JSR 7e 02 c4 64 fb 20331
7005 faa4 50 BVC 7e 02 c4 64 f9 20337
7006 faa6 f0 BEQ 7e 02 c4 64 f9 20339
7007 faa8 30 BMI 7e 02 c4 64 f9 20341
7008 faaa b0 BCS 7e 02 c4 64 f9 20343
7009 faac c9 CMP 7e 02 c4 64 f9 20345
7010 faae d0 BNE 7e 02 c4 67 f9 20347
7011 fab0 60 RTS 7e 02 c4 67 f9 20349
7012 ee99 a5 LDA 7e 02 c4 67 fb 20355
7013 ee9b c9 CMP 6e 02 c4 65 fb 20358
7014 ee9d f0 BEQ 6e 02 c4 67 fb 20360
7015 eea1 c8 INY 6e 02 c4 67 fb 20363
7016 eea2 a9 LDA 6e 02 c5 e5 fb 20365
7017 eea4 8d STA a5 02 c5 e5 fb 20367
7018 eea7 20 JSR a5 02 c5 e5 fb 20371
7019 fa7b 24 BIT a5 02 c5 e5 f9 20377
7020 fa7d 18 CLC a5 02 c5 e5 f9 20380
7021 fa7e a9 LDA a5 02 c5 e4 f9 20382
7022 fa80 60 RTS b3 02 c5 e4 f9 20384
7023 eeaa 0f *SLO b3 02 c5 e4 fb 20390
7024 eead ea NOP fb 02 c5 e5 fb 20396
7025 eeae ea NOP fb 02 c5 e5 fb 20398
7026 eeaf ea NOP fb 02 c5 e5 fb 20400
7027 eeb0 ea NOP fb 02 c5 e5 fb 20402
7028 eeb1 20 JSR fb 02 c5 e5 fb 20404
7029 fa81 50 BVC fb 02 c5 e5 f9 20410
7030 fa83 90 BCC fb 02 c5 e5 f9 20412
7031 fa85 10 BPL fb 02 c5 e5 f9 20414
7032 fa87 c9 CMP fb 02 c5 e5 f9 20416
7033 fa89 d0 BNE fb 02 c5 67 f9 20418
7034 fa8b 60 RTS fb 02 c5 67 f9 20420
7035 eeb4 ad LDA fb 02 c5 67 fb 20426
7036 eeb7 c9 CMP 4a 02 c5 65 fb 20430
7037 eeb9 f0 BEQ 4a 02 c5 67 fb 20432
7038 eebd c8 INY 4a 02 c5 67 fb 20435
7039 eebe a9 LDA 4a 02 c6 e5 fb 20437
7040 eec0 8d STA 29 02 c6 65 fb 20439
7041 eec3 20 JSR 29 02 c6 65 fb 20443
7042 fa8c b8 CLV 29 02 c6 65 f9 20449
7043 fa8d 18 CLC 29 02 c6 25 f9 20451
7044 fa8e a9 LDA 29 02 c6 24 f9 20453
7045 fa90 60 RTS c3 02 c6 a4 f9 20455
7046 eec6 0f *SLO c3 02 c6 a4 fb 20461
7047 eec9 ea NOP d3 02 c6 a4 fb 20467
7048 eeca ea NOP d3 02 c6 a4 fb 20469
7049 eecb ea NOP d3 02 c6 a4 fb 20471
7050 eecc ea NOP d3 02 c6 a4 fb 20473
7051 eecd 20 JSR d3 02 c6 a4 fb 20475
7052 fa91 70 BVS d3 02 c6 a4 f9 20481
7053 fa93 f0 BEQ d3 02 c6 a4 f9 20483
7054 fa95 10 BPL d3 02 c6 a4 f9 20485
7055 fa97 b0 BCS d3 02 c6 a4 f9 20487
7056 fa99 c9 CMP d3 02 c6 a4 f9 20489
7057 fa9b d0 BNE d3 02 c6 27 f9 20491
7058 fa9d 60 RTS d3 02 c6 27 f9 20493
7059 eed0 ad LDA d3 02 c6 27 fb 20499
7060 eed3 c9 CMP 52 02 c6 25 fb 20503
7061 eed5 f0 BEQ 52 02 c6 27 fb 20505
7062 eed9 c8 INY 52 02 c6 27 fb 20508
7063 eeda a9 LDA 52 02 c7 a5 fb 20510
7064 eedc 8d STA 37 02 c7 25 fb 20512
7065 eedf 20 JSR 37 02 c7 25 fb 20516
7066 fa9e 24 BIT 37 02 c7 25 f9 20522
7067 faa0 38 SEC 37 02 c7 e5 f9 20525
7068 faa1 a9 LDA 37 02 c7 e5 f9 20527
7069 faa3 60 RTS 10 02 c7 65 f9 20529
7070 eee2 0f *SLO 10 02 c7 65 fb 20535
7071 eee5 ea NOP 7e 02 c7 64 fb 20541
7072 eee6 ea NOP 7e 02 c7 64 fb 20543
7073 eee7 ea NOP 7e 02 c7 64 fb 20545
7074 eee8 ea NOP 7e 02 c7 64 fb 20547
7075 eee9 20 JSR 7e 02 c7 64 fb 20549
7076 faa4 50 BVC 7e 02 c7 64 f9 20555
7077 faa6 f0 BEQ 7e 02 c7 64 f9 20557
7078 faa8 30 BMI 7e 02 c7 64 f9 20559
7079 faaa b0 BCS 7e 02 c7 64 f9 20561
7080 faac c9 CMP 7e 02 c7 64 f9 20563
7081 faae d0 BNE 7e 02 c7 67 f9 20565
7082 fab0 60 RTS 7e 02 c7 67 f9 20567
7083 eeec ad LDA 7e 02 c7 67 fb 20573
7084 eeef c9 CMP 6e 02 c7 65 fb 20577
7085 eef1 f0 BEQ 6e 02 c7 67 fb 20579
7086 eef5 a9 LDA 6e 02 c7 67 fb 20582
7087 eef7 8d STA a5 02 c7 e5 fb 20584
7088 eefa a9 LDA a5 02 c7 e5 fb 20588
7089 eefc 85 STA 48 02 c7 65 fb 20590
7090 eefe a9 LDA 48 02 c7 65 fb 20593
7091 ef00 85 STA 05 02 c7 65 fb 20595
7092 ef02 a0 LDY 05 02 c7 65 fb 20598
7093 ef04 20 JSR 05 02 ff e5 fb 20600
7094 fa7b 24 BIT 05 02 ff e5 f9 20606
7095 fa7d 18 CLC 05 02 ff e5 f9 20609
7096 fa7e a9 LDA 05 02 ff e4 f9 20611
7097 fa80 60 RTS b3 02 ff e4 f9 20613
7098 ef07 13 *SLO b3 02 ff e4 fb 20619
7099 ef09 ea NOP fb 02 ff e5 fb 20627
7100 ef0a ea NOP fb 02 ff e5 fb 20629
7101 ef0b 08 PHP fb 02 ff e5 fb 20631
7102 ef0c 48 PHA fb 02 ff e5 fa 20634
7103 ef0d a0 LDY fb 02 ff e5 f9 20637
7104 ef0f 68 PLA fb 02 c8 e5 f9 20639
7105 ef10 28 PLP fb 02 c8 e5 fa 20643
7106 ef11 20 JSR fb 02 c8 e5 fb 20647
7107 fa81 50 BVC fb 02 c8 e5 f9 20653
7108 fa83 90 BCC fb 02 c8 e5 f9 20655
7109 fa85 10 BPL fb 02 c8 e5 f9 20657
7110 fa87 c9 CMP fb 02 c8 e5 f9 20659
7111 fa89 d0 BNE fb 02 c8 67 f9 20661
7112 fa8b 60 RTS fb 02 c8 67 f9 20663
7113 ef14 ad LDA fb 02 c8 67 fb 20669
7114 ef17 c9 CMP 4a 02 c8 65 fb 20673
7115 ef19 f0 BEQ 4a 02 c8 67 fb 20675
7116 ef1d a0 LDY 4a 02 c8 67 fb 20678
7117 ef1f a9 LDA 4a 02 ff e5 fb 20680
7118 ef21 8d STA 29 02 ff 65 fb 20682
7119 ef24 20 JSR 29 02 ff 65 fb 20686
7120 fa8c b8 CLV 29 02 ff 65 f9 20692
7121 fa8d 18 CLC 29 02 ff 25 f9 20694
7122 fa8e a9 LDA 29 02 ff 24 f9 20696
7123 fa90 60 RTS c3 02 ff a4 f9 20698
7124 ef27 13 *SLO c3 02 ff a4 fb 20704
7125 ef29 ea NOP d3 02 ff a4 fb 20712
7126 ef2a ea NOP d3 02 ff a4 fb 20714
7127 ef2b 08 PHP d3 02 ff a4 fb 20716
7128 ef2c 48 PHA d3 02 ff a4 fa 20719
7129 ef2d a0 LDY d3 02 ff a4 f9 20722
7130 ef2f 68 PLA d3 02 c9 a4 f9 20724
7131 ef30 28 PLP d3 02 c9 a4 fa 20728
7132 ef31 20 JSR d3 02 c9 a4 fb 20732
7133 fa91 70 BVS d3 02 c9 a4 f9 20738
7134 fa93 f0 BEQ d3 02 c9 a4 f9 20740
7135 fa95 10 BPL d3 02 c9 a4 f9 20742
7136 fa97 b0 BCS d3 02 c9 a4 f9 20744
7137 fa99 c9 CMP d3 02 c9 a4 f9 20746
7138 fa9b d0 BNE d3 02 c9 27 f9 20748
7139 fa9d 60 RTS d3 02 c9 27 f9 20750
7140 ef34 ad LDA d3 02 c9 27 fb 20756
7141 ef37 c9 CMP 52 02 c9 25 fb 20760
7142 ef39 f0 BEQ 52 02 c9 27 fb 20762
7143 ef3d a0 LDY 52 02 c9 27 fb 20765
7144 ef3f a9 LDA 52 02 ff a5 fb 20767
7145 ef41 8d STA 37 02 ff 25 fb 20769
7146 ef44 20 JSR 37 02 ff 25 fb 20773
7147 fa9e 24 BIT 37 02 ff 25 f9 20779
7148 faa0 38 SEC 37 02 ff e5 f9 20782
7149 faa1 a9 LDA 37 02 ff e5 f9 20784
7150 faa3 60 RTS 10 02 ff 65 f9 20786
7151 ef47 13 *SLO 10 02 ff 65 fb 20792
7152 ef49 ea NOP 7e 02 ff 64 fb 20800
7153 ef4a ea NOP 7e 02 ff 64 fb 20802
7154 ef4b 08 PHP 7e 02 ff 64 fb 20804
7155 ef4c 48 PHA 7e 02 ff 64 fa 20807
7156 ef4d a0 LDY 7e 02 ff 64 f9 20810
7157 ef4f 68 PLA 7e 02 ca e4 f9 20812
7158 ef50 28 PLP 7e 02 ca 64 fa 20816
7159 ef51 20 JSR 7e 02 ca 64 fb 20820
7160 faa4 50 BVC 7e 02 ca 64 f9 20826
7161 faa6 f0 BEQ 7e 02 ca 64 f9 20828
7162 faa8 30 BMI 7e 02 ca 64 f9 20830
7163 faaa b0 BCS 7e 02 ca 64 f9 20832
7164 faac c9 CMP 7e 02 ca 64 f9 20834
7165 faae d0 BNE 7e 02 ca 67 f9 20836
7166 fab0 60 RTS 7e 02 ca 67 f9 20838
7167 ef54 ad LDA 7e 02 ca 67 fb 20844
7168 ef57 c9 CMP 6e 02 ca 65 fb 20848
7169 ef59 f0 BEQ 6e 02 ca 67 fb 20850
7170 ef5d a0 LDY 6e 02 ca 67 fb 20853
7171 ef5f a2 LDX 6e 02 cb e5 fb 20855
7172 ef61 a9 LDA 6e ff cb e5 fb 20857
7173 ef63 85 STA a5 ff cb e5 fb 20859
7174 ef65 20 JSR a5 ff cb e5 fb 20862
7175 fa7b 24 BIT a5 ff cb e5 f9 20868
7176 fa7d 18 CLC a5 ff cb e5 f9 20871
7177 fa7e a9 LDA a5 ff cb e4 f9 20873
7178 fa80 60 RTS b3 ff cb e4 f9 20875
7179 ef68 17 *SLO b3 ff cb e4 fb 20881
7180 ef6a ea NOP fb ff cb e5 fb 20887
7181 ef6b ea NOP fb ff cb e5 fb 20889
7182 ef6c ea NOP fb ff cb e5 fb 20891
7183 ef6d ea NOP fb ff cb e5 fb 20893
7184 ef6e 20 JSR fb ff cb e5 fb 20895
7185 fa81 50 BVC fb ff cb e5 f9 20901
7186 fa83 90 BCC fb ff cb e5 f9 20903
7187 fa85 10 BPL fb ff cb e5 f9 20905
7188 fa87 c9 CMP fb ff cb e5 f9 20907
7189 fa89 d0 BNE fb ff cb 67 f9 20909
7190 fa8b 60 RTS fb ff cb 67 f9 20911
7191 ef71 a5 LDA fb ff cb 67 fb 20917
7192 ef73 c9 CMP 4a ff cb 65 fb 20920
7193 ef75 f0 BEQ 4a ff cb 67 fb 20922
7194 ef79 c8 INY 4a ff cb 67 fb 20925
7195 ef7a a9 LDA 4a ff cc e5 fb 20927
7196 ef7c 85 STA 29 ff cc 65 fb 20929
7197 ef7e 20 JSR 29 ff cc 65 fb 20932
7198 fa8c b8 CLV 29 ff cc 65 f9 20938
7199 fa8d 18 CLC 29 ff cc 25 f9 20940
7200 fa8e a9 LDA 29 ff cc 24 f9 20942
7201 fa90 60 RTS c3 ff cc a4 f9 20944
7202 ef81 17 *SLO c3 ff cc a4 fb 20950
7203 ef83 ea NOP d3 ff cc a4 fb 20956
7204 ef84 ea NOP d3 ff cc a4 fb 20958
7205 ef85 ea NOP d3 ff cc a4 fb 20960
7206 ef86 ea NOP d3 ff cc a4 fb 20962
7207 ef87 20 JSR d3 ff cc a4 fb 20964
7208 fa91 70 BVS d3 ff cc a4 f9 20970
7209 fa93 f0 BEQ d3 ff cc a4 f9 20972
7210 fa95 10 BPL d3 ff cc a4 f9 20974
7211 fa97 b0 BCS d3 ff cc a4 f9 20976
7212 fa99 c9 CMP d3 ff cc a4 f9 20978
7213 fa9b d0 BNE d3 ff cc 27 f9 20980
7214 fa9d 60 RTS d3 ff cc 27 f9 20982
7215 ef8a a5 LDA d3 ff cc 27 fb 20988
7216 ef8c c9 CMP 52 ff cc 25 fb 20991
7217 ef8e f0 BEQ 52 ff cc 27 fb 20993
7218 ef92 c8 INY 52 ff cc 27 fb 20996
7219 ef93 a9 LDA 52 ff cd a5 fb 20998
7220 ef95 85 STA 37 ff cd 25 fb 21000
7221 ef97 20 JSR 37 ff cd 25 fb 21003
7222 fa9e 24 BIT 37 ff cd 25 f9 21009
7223 faa0 38 SEC 37 ff cd e5 f9 21012
7224 faa1 a9 LDA 37 ff cd e5 f9 21014
7225 faa3 60 RTS 10 ff cd 65 f9 21016
7226 ef9a 17 *SLO 10 ff cd 65 fb 21022
7227 ef9c ea NOP 7e ff cd 64 fb 21028
7228 ef9d ea NOP 7e ff cd 64 fb 21030
7229 ef9e ea NOP 7e ff cd 64 fb 21032
7230 ef9f ea NOP 7e ff cd 64 fb 21034
7231 efa0 20 JSR 7e ff cd 64 fb 21036
7232 faa4 50 BVC 7e ff cd 64 f9 21042
7233 faa6 f0 BEQ 7e ff cd 64 f9 21044
7234 faa8 30 BMI 7e ff cd 64 f9 21046
7235 faaa b0 BCS 7e ff cd 64 f9 21048
7236 faac c9 CMP 7e ff cd 64 f9 21050
7237 faae d0 BNE 7e ff cd 67 f9 21052
7238 fab0 60 RTS 7e ff cd 67 f9 21054
7239 efa3 a5 LDA 7e ff cd 67 fb 21060
7240 efa5 c9 CMP 6e ff cd 65 fb 21063
7241 efa7 f0 BEQ 6e ff cd 67 fb 21065
7242 efab a9 LDA 6e ff cd 67 fb 21068
7243 efad 8d STA a5 ff cd e5 fb 21070
7244 efb0 a0 LDY a5 ff cd e5 fb 21074
7245 efb2 20 JSR a5 ff ff e5 fb 21076
7246 fa7b 24 BIT a5 ff ff e5 f9 21082
7247 fa7d 18 CLC a5 ff ff e5 f9 21085
7248 fa7e a9 LDA a5 ff ff e4 f9 21087
7249 fa80 60 RTS b3 ff ff e4 f9 21089
7250 efb5 1b *SLO b3 ff ff e4 fb 21095
7251 efb8 ea NOP fb ff ff e5 fb 21102
7252 efb9 ea NOP fb ff ff e5 fb 21104
7253 efba 08 PHP fb ff ff e5 fb 21106
7254 efbb 48 PHA fb ff ff e5 fa 21109
7255 efbc a0 LDY fb ff ff e5 f9 21112
7256 efbe 68 PLA fb ff ce e5 f9 21114
7257 efbf 28 PLP fb ff ce e5 fa 21118
7258 efc0 20 JSR fb ff ce e5 fb 21122
7259 fa81 50 BVC fb ff ce e5 f9 21128
7260 fa83 90 BCC fb ff ce e5 f9 21130
7261 fa85 10 BPL fb ff ce e5 f9 21132
7262 fa87 c9 CMP fb ff ce e5 f9 21134
7263 fa89 d0 BNE fb ff ce 67 f9 21136
7264 fa8b 60 RTS fb ff ce 67 f9 21138
7265 efc3 ad LDA fb ff ce 67 fb 21144
7266 efc6 c9 CMP 4a ff ce 65 fb 21148
7267 efc8 f0 BEQ 4a ff ce 67 fb 21150
7268 efcc a0 LDY 4a ff ce 67 fb 21153
7269 efce a9 LDA 4a ff ff e5 fb 21155
7270 efd0 8d STA 29 ff ff 65 fb 21157
7271 efd3 20 JSR 29 ff ff 65 fb 21161
7272 fa8c b8 CLV 29 ff ff 65 f9 21167
7273 fa8d 18 CLC 29 ff ff 25 f9 21169
7274 fa8e a9 LDA 29 ff ff 24 f9 21171
7275 fa90 60 RTS c3 ff ff a4 f9 21173
7276 efd6 1b *SLO c3 ff ff a4 fb 21179
7277 efd9 ea NOP d3 ff ff a4 fb 21186
7278 efda ea NOP d3 ff ff a4 fb 21188
7279 efdb 08 PHP d3 ff ff a4 fb 21190
7280 efdc 48 PHA d3 ff ff a4 fa 21193
7281 efdd a0 LDY d3 ff ff a4 f9 21196
7282 efdf 68 PLA d3 ff cf a4 f9 21198
7283 efe0 28 PLP d3 ff cf a4 fa 21202
7284 efe1 20 JSR d3 ff cf a4 fb 21206
7285 fa91 70 BVS d3 ff cf a4 f9 21212
7286 fa93 f0 BEQ d3 ff cf a4 f9 21214
7287 fa95 10 BPL d3 ff cf a4 f9 21216
7288 fa97 b0 BCS d3 ff cf a4 f9 21218
7289 fa99 c9 CMP d3 ff cf a4 f9 21220
7290 fa9b d0 BNE d3 ff cf 27 f9 21222
7291 fa9d 60 RTS d3 ff cf 27 f9 21224
7292 efe4 ad LDA d3 ff cf 27 fb 21230
7293 efe7 c9 CMP 52 ff cf 25 fb 21234
7294 efe9 f0 BEQ 52 ff cf 27 fb 21236
7295 efed a0 LDY 52 ff cf 27 fb 21239
7296 efef a9 LDA 52 ff ff a5 fb 21241
7297 eff1 8d STA 37 ff ff 25 fb 21243
7298 eff4 20 JSR 37 ff ff 25 fb 21247
7299 fa9e 24 BIT 37 ff ff 25 f9 21253
7300 faa0 38 SEC 37 ff ff e5 f9 21256
7301 faa1 a9 LDA 37 ff ff e5 f9 21258
7302 faa3 60 RTS 10 ff ff 65 f9 21260
7303 eff7 1b *SLO 10 ff ff 65 fb 21266
7304 effa ea NOP 7e ff ff 64 fb 21273
7305 effb ea NOP 7e ff ff 64 fb 21275
7306 effc 08 PHP 7e ff ff 64 fb 21277
7307 effd 48 PHA 7e ff ff 64 fa 21280
7308 effe a0 LDY 7e ff ff 64 f9 21283
7309 f000 68 PLA 7e ff d0 e4 f9 21285
7310 f001 28 PLP 7e ff d0 64 fa 21289
7311 f002 20 JSR 7e ff d0 64 fb 21293
7312 faa4 50 BVC 7e ff d0 64 f9 21299
7313 faa6 f0 BEQ 7e ff d0 64 f9 21301
7314 faa8 30 BMI 7e ff d0 64 f9 21303
7315 faaa b0 BCS 7e ff d0 64 f9 21305
7316 faac c9 CMP 7e ff d0 64 f9 21307
7317 faae d0 BNE 7e ff d0 67 f9 21309
7318 fab0 60 RTS 7e ff d0 67 f9 21311
7319 f005 ad LDA 7e ff d0 67 fb 21317
7320 f008 c9 CMP 6e ff d0 65 fb 21321
7321 f00a f0 BEQ 6e ff d0 67 fb 21323
7322 f00e a0 LDY 6e ff d0 67 fb 21326
7323 f010 a2 LDX 6e ff d1 e5 fb 21328
7324 f012 a9 LDA 6e ff d1 e5 fb 21330
7325 f014 8d STA a5 ff d1 e5 fb 21332
7326 f017 20 JSR a5 ff d1 e5 fb 21336
7327 fa7b 24 BIT a5 ff d1 e5 f9 21342
7328 fa7d 18 CLC a5 ff d1 e5 f9 21345
7329 fa7e a9 LDA a5 ff d1 e4 f9 21347
7330 fa80 60 RTS b3 ff d1 e4 f9 21349
7331 f01a 1f *SLO b3 ff d1 e4 fb 21355
7332 f01d ea NOP fb ff d1 e5 fb 21362
7333 f01e ea NOP fb ff d1 e5 fb 21364
7334 f01f ea NOP fb ff d1 e5 fb 21366
7335 f020 ea NOP fb ff d1 e5 fb 21368
7336 f021 20 JSR fb ff d1 e5 fb 21370
7337 fa81 50 BVC fb ff d1 e5 f9 21376
7338 fa83 90 BCC fb ff d1 e5 f9 21378
7339 fa85 10 BPL fb ff d1 e5 f9 21380
7340 fa87 c9 CMP fb ff d1 e5 f9 21382
7341 fa89 d0 BNE fb ff d1 67 f9 21384
7342 fa8b 60 RTS fb ff d1 67 f9 21386
7343 f024 ad LDA fb ff d1 67 fb 21392
7344 f027 c9 CMP 4a ff d1 65 fb 21396
7345 f029 f0 BEQ 4a ff d1 67 fb 21398
7346 f02d c8 INY 4a ff d1 67 fb 21401
7347 f02e a9 LDA 4a ff d2 e5 fb 21403
7348 f030 8d STA 29 ff d2 65 fb 21405
7349 f033 20 JSR 29 ff d2 65 fb 21409
7350 fa8c b8 CLV 29 ff d2 65 f9 21415
7351 fa8d 18 CLC 29 ff d2 25 f9 21417
7352 fa8e a9 LDA 29 ff d2 24 f9 21419
7353 fa90 60 RTS c3 ff d2 a4 f9 21421
7354 f036 1f *SLO c3 ff d2 a4 fb 21427
7355 f039 ea NOP d3 ff d2 a4 fb 21434
7356 f03a ea NOP d3 ff d2 a4 fb 21436
7357 f03b ea NOP d3 ff d2 a4 fb 21438
7358 f03c ea NOP d3 ff d2 a4 fb 21440
7359 f03d 20 JSR d3 ff d2 a4 fb 21442
7360 fa91 70 BVS d3 ff d2 a4 f9 21448
7361 fa93 f0 BEQ d3 ff d2 a4 f9 21450
7362 fa95 10 BPL d3 ff d2 a4 f9 21452
7363 fa97 b0 BCS d3 ff d2 a4 f9 21454
7364 fa99 c9 CMP d3 ff d2 a4 f9 21456
7365 fa9b d0 BNE d3 ff d2 27 f9 21458
7366 fa9d 60 RTS d3 ff d2 27 f9 21460
7367 f040 ad LDA d3 ff d2 27 fb 21466
7368 f043 c9 CMP 52 ff d2 25 fb 21470
7369 f045 f0 BEQ 52 ff d2 27 fb 21472
7370 f049 c8 INY 52 ff d2 27 fb 21475
7371 f04a a9 LDA 52 ff d3 a5 fb 21477
7372 f04c 8d STA 37 ff d3 25 fb 21479
7373 f04f 20 JSR 37 ff d3 25 fb 21483
7374 fa9e 24 BIT 37 ff d3 25 f9 21489
7375 faa0 38 SEC 37 ff d3 e5 f9 21492
7376 faa1 a9 LDA 37 ff d3 e5 f9 21494
7377 faa3 60 RTS 10 ff d3 65 f9 21496
7378 f052 1f *SLO 10 ff d3 65 fb 21502
7379 f055 ea NOP 7e ff d3 64 fb 21509
7380 f056 ea NOP 7e ff d3 64 fb 21511
7381 f057 ea NOP 7e ff d3 64 fb 21513
7382 f058 ea NOP 7e ff d3 64 fb 21515
7383 f059 20 JSR 7e ff d3 64 fb 21517
7384 faa4 50 BVC 7e ff d3 64 f9 21523
7385 faa6 f0 BEQ 7e ff d3 64 f9 21525
7386 faa8 30 BMI 7e ff d3 64 f9 21527
7387 faaa b0 BCS 7e ff d3 64 f9 21529
7388 faac c9 CMP 7e ff d3 64 f9 21531
7389 faae d0 BNE 7e ff d3 67 f9 21533
7390 fab0 60 RTS 7e ff d3 67 f9 21535
7391 f05c ad LDA 7e ff d3 67 fb 21541
7392 f05f c9 CMP 6e ff d3 65 fb 21545
7393 f061 f0 BEQ 6e ff d3 67 fb 21547
7394 f065 60 RTS 6e ff d3 67 fb 21550
7395 c644 20 JSR 6e ff d3 67 fd 21556
7396 f066 a9 LDA 6e ff d3 67 fb 21562
7397 f068 85 STA ff ff d3 e5 fb 21564
7398 f06a a0 LDY ff ff d3 e5 fb 21567
7399 f06c a2 LDX ff ff d4 e5 fb 21569
7400 f06e a9 LDA ff 02 d4 65 fb 21571
7401 f070 85 STA 47 02 d4 65 fb 21573
7402 f072 a9 LDA 47 02 d4 65 fb 21576
7403 f074 85 STA 06 02 d4 65 fb 21578
7404 f076 a9 LDA 06 02 d4 65 fb 21581
7405 f078 8d STA a5 02 d4 e5 fb 21583
7406 f07b 20 JSR a5 02 d4 e5 fb 21587
7407 fb53 24 BIT a5 02 d4 e5 f9 21593
7408 fb55 18 CLC a5 02 d4 e5 f9 21596
7409 fb56 a9 LDA a5 02 d4 e4 f9 21598
7410 fb58 60 RTS b3 02 d4 e4 f9 21600
7411 f07e 23 *RLA b3 02 d4 e4 fb 21606
7412 f080 ea NOP 02 02 d4 65 fb 21614
7413 f081 ea NOP 02 02 d4 65 fb 21616
7414 f082 ea NOP 02 02 d4 65 fb 21618
7415 f083 ea NOP 02 02 d4 65 fb 21620
7416 f084 20 JSR 02 02 d4 65 fb 21622
7417 fb59 50 BVC 02 02 d4 65 f9 21628
7418 fb5b 90 BCC 02 02 d4 65 f9 21630
7419 fb5d 30 BMI 02 02 d4 65 f9 21632
7420 fb5f c9 CMP 02 02 d4 65 f9 21634
7421 fb61 d0 BNE 02 02 d4 67 f9 21636
7422 fb63 60 RTS 02 02 d4 67 f9 21638
7423 f087 ad LDA 02 02 d4 67 fb 21644
7424 f08a c9 CMP 4a 02 d4 65 fb 21648
7425 f08c f0 BEQ 4a 02 d4 67 fb 21650
7426 f090 c8 INY 4a 02 d4 67 fb 21653
7427 f091 a9 LDA 4a 02 d5 e5 fb 21655
7428 f093 8d STA 29 02 d5 65 fb 21657
7429 f096 20 JSR 29 02 d5 65 fb 21661
7430 fb64 b8 CLV 29 02 d5 65 f9 21667
7431 fb65 18 CLC 29 02 d5 25 f9 21669
7432 fb66 a9 LDA 29 02 d5 24 f9 21671
7433 fb68 60 RTS 42 02 d5 24 f9 21673
7434 f099 23 *RLA 42 02 d5 24 fb 21679
7435 f09b ea NOP 42 02 d5 24 fb 21687
7436 f09c ea NOP 42 02 d5 24 fb 21689
7437 f09d ea NOP 42 02 d5 24 fb 21691
7438 f09e ea NOP 42 02 d5 24 fb 21693
7439 f09f 20 JSR 42 02 d5 24 fb 21695
7440 fb69 70 BVS 42 02 d5 24 f9 21701
7441 fb6b f0 BEQ 42 02 d5 24 f9 21703
7442 fb6d 30 BMI 42 02 d5 24 f9 21705
7443 fb6f b0 BCS 42 02 d5 24 f9 21707
7444 fb71 c9 CMP 42 02 d5 24 f9 21709
7445 fb73 f0 BEQ 42 02 d5 27 f9 21711
7446 fb77 60 RTS 42 02 d5 27 f9 21714
7447 f0a2 ad LDA 42 02 d5 27 fb 21720
7448 f0a5 c9 CMP 52 02 d5 25 fb 21724
7449 f0a7 f0 BEQ 52 02 d5 27 fb 21726
7450 f0ab c8 INY 52 02 d5 27 fb 21729
7451 f0ac a9 LDA 52 02 d6 a5 fb 21731
7452 f0ae 8d STA 37 02 d6 25 fb 21733
7453 f0b1 20 JSR 37 02 d6 25 fb 21737
7454 fa68 24 BIT 37 02 d6 25 f9 21743
7455 fa6a 38 SEC 37 02 d6 e5 f9 21746
7456 fa6b a9 LDA 37 02 d6 e5 f9 21748
7457 fa6d 60 RTS 75 02 d6 65 f9 21750
7458 f0b4 23 *RLA 75 02 d6 65 fb 21756
7459 f0b6 ea NOP 65 02 d6 64 fb 21764
7460 f0b7 ea NOP 65 02 d6 64 fb 21766
7461 f0b8 ea NOP 65 02 d6 64 fb 21768
7462 f0b9 ea NOP 65 02 d6 64 fb 21770
7463 f0ba 20 JSR 65 02 d6 64 fb 21772
7464 fa6e 50 BVC 65 02 d6 64 f9 21778
7465 fa70 f0 BEQ 65 02 d6 64 f9 21780
7466 fa72 30 BMI 65 02 d6 64 f9 21782
7467 fa74 b0 BCS 65 02 d6 64 f9 21784
7468 fa76 c9 CMP 65 02 d6 64 f9 21786
7469 fa78 d0 BNE 65 02 d6 67 f9 21788
7470 fa7a 60 RTS 65 02 d6 67 f9 21790
7471 f0bd ad LDA 65 02 d6 67 fb 21796
7472 f0c0 c9 CMP 6f 02 d6 65 fb 21800
7473 f0c2 f0 BEQ 6f 02 d6 67 fb 21802
7474 f0c6 c8 INY 6f 02 d6 67 fb 21805
7475 f0c7 a9 LDA 6f 02 d7 e5 fb 21807
7476 f0c9 85 STA a5 02 d7 e5 fb 21809
7477 f0cb 20 JSR a5 02 d7 e5 fb 21812
7478 fb53 24 BIT a5 02 d7 e5 f9 21818
7479 fb55 18 CLC a5 02 d7 e5 f9 21821
7480 fb56 a9 LDA a5 02 d7 e4 f9 21823
7481 fb58 60 RTS b3 02 d7 e4 f9 21825
7482 f0ce 27 *RLA b3 02 d7 e4 fb 21831
7483 f0d0 ea NOP 02 02 d7 65 fb 21836
7484 f0d1 ea NOP 02 02 d7 65 fb 21838
7485 f0d2 ea NOP 02 02 d7 65 fb 21840
7486 f0d3 ea NOP 02 02 d7 65 fb 21842
7487 f0d4 20 JSR 02 02 d7 65 fb 21844
7488 fb59 50 BVC 02 02 d7 65 f9 21850
7489 fb5b 90 BCC 02 02 d7 65 f9 21852
7490 fb5d 30 BMI 02 02 d7 65 f9 21854
7491 fb5f c9 CMP 02 02 d7 65 f9 21856
7492 fb61 d0 BNE 02 02 d7 67 f9 21858
7493 fb63 60 RTS 02 02 d7 67 f9 21860
7494 f0d7 a5 LDA 02 02 d7 67 fb 21866
7495 f0d9 c9 CMP 4a 02 d7 65 fb 21869
7496 f0db f0 BEQ 4a 02 d7 67 fb 21871
7497 f0df c8 INY 4a 02 d7 67 fb 21874
7498 f0e0 a9 LDA 4a 02 d8 e5 fb 21876
7499 f0e2 85 STA 29 02 d8 65 fb 21878
7500 f0e4 20 JSR 29 02 d8 65 fb 21881
7501 fb64 b8 CLV 29 02 d8 65 f9 21887
7502 fb65 18 CLC 29 02 d8 25 f9 21889
7503 fb66 a9 LDA 29 02 d8 24 f9 21891
7504 fb68 60 RTS 42 02 d8 24 f9 21893
7505 f0e7 27 *RLA 42 02 d8 24 fb 21899
7506 f0e9 ea NOP 42 02 d8 24 fb 21904
7507 f0ea ea NOP 42 02 d8 24 fb 21906
7508 f0eb ea NOP 42 02 d8 24 fb 21908
7509 f0ec ea NOP 42 02 d8 24 fb 21910
7510 f0ed 20 JSR 42 02 d8 24 fb 21912
7511 fb69 70 BVS 42 02 d8 24 f9 21918
7512 fb6b f0 BEQ 42 02 d8 24 f9 21920
7513 fb6d 30 BMI 42 02 d8 24 f9 21922
7514 fb6f b0 BCS 42 02 d8 24 f9 21924
7515 fb71 c9 CMP 42 02 d8 24 f9 21926
7516 fb73 f0 BEQ 42 02 d8 27 f9 21928
7517 fb77 60 RTS 42 02 d8 27 f9 21931
7518 f0f0 a5 LDA 42 02 d8 27 fb 21937
7519 f0f2 c9 CMP 52 02 d8 25 fb 21940
7520 f0f4 f0 BEQ 52 02 d8 27 fb 21942
7521 f0f8 c8 INY 52 02 d8 27 fb 21945
7522 f0f9 a9 LDA 52 02 d9 a5 fb 21947
7523 f0fb 85 STA 37 02 d9 25 fb 21949
7524 f0fd 20 JSR 37 02 d9 25 fb 21952
7525 fa68 24 BIT 37 02 d9 25 f9 21958
7526 fa6a 38 SEC 37 02 d9 e5 f9 21961
7527 fa6b a9 LDA 37 02 d9 e5 f9 21963
7528 fa6d 60 RTS 75 02 d9 65 f9 21965
7529 f100 27 *RLA 75 02 d9 65 fb 21971
7530 f102 ea NOP 65 02 d9 64 fb 21976
7531 f103 ea NOP 65 02 d9 64 fb 21978
7532 f104 ea NOP 65 02 d9 64 fb 21980
7533 f105 ea NOP 65 02 d9 64 fb 21982
7534 f106 20 JSR 65 02 d9 64 fb 21984
7535 fa6e 50 BVC 65 02 d9 64 f9 21990
7536 fa70 f0 BEQ 65 02 d9 64 f9 21992
7537 fa72 30 BMI 65 02 d9 64 f9 21994
7538 fa74 b0 BCS 65 02 d9 64 f9 21996
7539 fa76 c9 CMP 65 02 d9 64 f9 21998
7540 fa78 d0 BNE 65 02 d9 67 f9 22000
7541 fa7a 60 RTS 65 02 d9 67 f9 22002
7542 f109 a5 LDA 65 02 d9 67 fb 22008
7543 f10b c9 CMP 6f 02 d9 65 fb 22011
7544 f10d f0 BEQ 6f 02 d9 67 fb 22013
7545 f111 c8 INY 6f 02 d9 67 fb 22016
7546 f112 a9 LDA 6f 02 da e5 fb 22018
7547 f114 8d STA a5 02 da e5 fb 22020
7548 f117 20 JSR a5 02 da e5 fb 22024
7549 fb53 24 BIT a5 02 da e5 f9 22030
7550 fb55 18 CLC a5 02 da e5 f9 22033
7551 fb56 a9 LDA a5 02 da e4 f9 22035
7552 fb58 60 RTS b3 02 da e4 f9 22037
7553 f11a 2f *RLA b3 02 da e4 fb 22043
7554 f11d ea NOP 02 02 da 65 fb 22049
7555 f11e ea NOP 02 02 da 65 fb 22051
7556 f11f ea NOP 02 02 da 65 fb 22053
7557 f120 ea NOP 02 02 da 65 fb 22055
7558 f121 20 JSR 02 02 da 65 fb 22057
7559 fb59 50 BVC 02 02 da 65 f9 22063
7560 fb5b 90 BCC 02 02 da 65 f9 22065
7561 fb5d 30 BMI 02 02 da 65 f9 22067
7562 fb5f c9 CMP 02 02 da 65 f9 22069
7563 fb61 d0 BNE 02 02 da 67 f9 22071
7564 fb63 60 RTS 02 02 da 67 f9 22073
7565 f124 ad LDA 02 02 da 67 fb 22079
7566 f127 c9 CMP 4a 02 da 65 fb 22083
7567 f129 f0 BEQ 4a 02 da 67 fb 22085
7568 f12d c8 INY 4a 02 da 67 fb 22088
7569 f12e a9 LDA 4a 02 db e5 fb 22090
7570 f130 8d STA 29 02 db 65 fb 22092
7571 f133 20 JSR 29 02 db 65 fb 22096
7572 fb64 b8 CLV 29 02 db 65 f9 22102
7573 fb65 18 CLC 29 02 db 25 f9 22104
7574 fb66 a9 LDA 29 02 db 24 f9 22106
7575 fb68 60 RTS 42 02 db 24 f9 22108
7576 f136 2f *RLA 42 02 db 24 fb 22114
7577 f139 ea NOP 42 02 db 24 fb 22120
7578 f13a ea NOP 42 02 db 24 fb 22122
7579 f13b ea NOP 42 02 db 24 fb 22124
7580 f13c ea NOP 42 02 db 24 fb 22126
7581 f13d 20 JSR 42 02 db 24 fb 22128
7582 fb69 70 BVS 42 02 db 24 f9 22134
7583 fb6b f0 BEQ 42 02 db 24 f9 22136
7584 fb6d 30 BMI 42 02 db 24 f9 22138
7585 fb6f b0 BCS 42 02 db 24 f9 22140
7586 fb71 c9 CMP 42 02 db 24 f9 22142
7587 fb73 f0 BEQ 42 02 db 27 f9 22144
7588 fb77 60 RTS 42 02 db 27 f9 22147
7589 f140 ad LDA 42 02 db 27 fb 22153
7590 f143 c9 CMP 52 02 db 25 fb 22157
7591 f145 f0 BEQ 52 02 db 27 fb 22159
7592 f149 c8 INY 52 02 db 27 fb 22162
7593 f14a a9 LDA 52 02 dc a5 fb 22164
7594 f14c 8d STA 37 02 dc 25 fb 22166
7595 f14f 20 JSR 37 02 dc 25 fb 22170
7596 fa68 24 BIT 37 02 dc 25 f9 22176
7597 fa6a 38 SEC 37 02 dc e5 f9 22179
7598 fa6b a9 LDA 37 02 dc e5 f9 22181
7599 fa6d 60 RTS 75 02 dc 65 f9 22183
7600 f152 2f *RLA 75 02 dc 65 fb 22189
7601 f155 ea NOP 65 02 dc 64 fb 22195
7602 f156 ea NOP 65 02 dc 64 fb 22197
7603 f157 ea NOP 65 02 dc 64 fb 22199
7604 f158 ea NOP 65 02 dc 64 fb 22201
7605 f159 20 JSR 65 02 dc 64 fb 22203
7606 fa6e 50 BVC 65 02 dc 64 f9 22209
7607 fa70 f0 BEQ 65 02 dc 64 f9 22211
7608 fa72 30 BMI 65 02 dc 64 f9 22213
7609 fa74 b0 BCS 65 02 dc 64 f9 22215
7610 fa76 c9 CMP 65 02 dc 64 f9 22217
7611 fa78 d0 BNE 65 02 dc 67 f9 22219
7612 fa7a 60 RTS 65 02 dc 67 f9 22221
7613 f15c ad LDA 65 02 dc 67 fb 22227
7614 f15f c9 CMP 6f 02 dc 65 fb 22231
7615 f161 f0 BEQ 6f 02 dc 67 fb 22233
7616 f165 a9 LDA 6f 02 dc 67 fb 22236
7617 f167 8d STA a5 02 dc e5 fb 22238
7618 f16a a9 LDA a5 02 dc e5 fb 22242
7619 f16c 85 STA 48 02 dc 65 fb 22244
7620 f16e a9 LDA 48 02 dc 65 fb 22247
7621 f170 85 STA 05 02 dc 65 fb 22249
7622 f172 a0 LDY 05 02 dc 65 fb 22252
7623 f174 20 JSR 05 02 ff e5 fb 22254
7624 fb53 24 BIT 05 02 ff e5 f9 22260
7625 fb55 18 CLC 05 02 ff e5 f9 22263
7626 fb56 a9 LDA 05 02 ff e4 f9 22265
7627 fb58 60 RTS b3 02 ff e4 f9 22267
7628 f177 33 *RLA b3 02 ff e4 fb 22273
7629 f179 ea NOP 02 02 ff 65 fb 22281
7630 f17a ea NOP 02 02 ff 65 fb 22283
7631 f17b 08 PHP 02 02 ff 65 fb 22285
7632 f17c 48 PHA 02 02 ff 65 fa 22288
7633 f17d a0 LDY 02 02 ff 65 f9 22291
7634 f17f 68 PLA 02 02 dd e5 f9 22293
7635 f180 28 PLP 02 02 dd 65 fa 22297
7636 f181 20 JSR 02 02 dd 65 fb 22301
7637 fb59 50 BVC 02 02 dd 65 f9 22307
7638 fb5b 90 BCC 02 02 dd 65 f9 22309
7639 fb5d 30 BMI 02 02 dd 65 f9 22311
7640 fb5f c9 CMP 02 02 dd 65 f9 22313
7641 fb61 d0 BNE 02 02 dd 67 f9 22315
7642 fb63 60 RTS 02 02 dd 67 f9 22317
7643 f184 ad LDA 02 02 dd 67 fb 22323
7644 f187 c9 CMP 4a 02 dd 65 fb 22327
7645 f189 f0 BEQ 4a 02 dd 67 fb 22329
7646 f18d a0 LDY 4a 02 dd 67 fb 22332
7647 f18f a9 LDA 4a 02 ff e5 fb 22334
7648 f191 8d STA 29 02 ff 65 fb 22336
7649 f194 20 JSR 29 02 ff 65 fb 22340
7650 fb64 b8 CLV 29 02 ff 65 f9 22346
7651 fb65 18 CLC 29 02 ff 25 f9 22348
7652 fb66 a9 LDA 29 02 ff 24 f9 22350
7653 fb68 60 RTS 42 02 ff 24 f9 22352
7654 f197 33 *RLA 42 02 ff 24 fb 22358
7655 f199 ea NOP 42 02 ff 24 fb 22366
7656 f19a ea NOP 42 02 ff 24 fb 22368
7657 f19b 08 PHP 42 02 ff 24 fb 22370
7658 f19c 48 PHA 42 02 ff 24 fa 22373
7659 f19d a0 LDY 42 02 ff 24 f9 22376
7660 f19f 68 PLA 42 02 de a4 f9 22378
7661 f1a0 28 PLP 42 02 de 24 fa 22382
7662 f1a1 20 JSR 42 02 de 24 fb 22386
7663 fb69 70 BVS 42 02 de 24 f9 22392
7664 fb6b f0 BEQ 42 02 de 24 f9 22394
7665 fb6d 30 BMI 42 02 de 24 f9 22396
7666 fb6f b0 BCS 42 02 de 24 f9 22398
7667 fb71 c9 CMP 42 02 de 24 f9 22400
7668 fb73 f0 BEQ 42 02 de 27 f9 22402
7669 fb77 60 RTS 42 02 de 27 f9 22405
7670 f1a4 ad LDA 42 02 de 27 fb 22411
7671 f1a7 c9 CMP 52 02 de 25 fb 22415
7672 f1a9 f0 BEQ 52 02 de 27 fb 22417
7673 f1ad a0 LDY 52 02 de 27 fb 22420
7674 f1af a9 LDA 52 02 ff a5 fb 22422
7675 f1b1 8d STA 37 02 ff 25 fb 22424
7676 f1b4 20 JSR 37 02 ff 25 fb 22428
7677 fa68 24 BIT 37 02 ff 25 f9 22434
7678 fa6a 38 SEC 37 02 ff e5 f9 22437
7679 fa6b a9 LDA 37 02 ff e5 f9 22439
7680 fa6d 60 RTS 75 02 ff 65 f9 22441
7681 f1b7 33 *RLA 75 02 ff 65 fb 22447
7682 f1b9 ea NOP 65 02 ff 64 fb 22455
7683 f1ba ea NOP 65 02 ff 64 fb 22457
7684 f1bb 08 PHP 65 02 ff 64 fb 22459
7685 f1bc 48 PHA 65 02 ff 64 fa 22462
7686 f1bd a0 LDY 65 02 ff 64 f9 22465
7687 f1bf 68 PLA 65 02 df e4 f9 22467
7688 f1c0 28 PLP 65 02 df 64 fa 22471
7689 f1c1 20 JSR 65 02 df 64 fb 22475
7690 fa6e 50 BVC 65 02 df 64 f9 22481
7691 fa70 f0 BEQ 65 02 df 64 f9 22483
7692 fa72 30 BMI 65 02 df 64 f9 22485
7693 fa74 b0 BCS 65 02 df 64 f9 22487
7694 fa76 c9 CMP 65 02 df 64 f9 22489
7695 fa78 d0 BNE 65 02 df 67 f9 22491
7696 fa7a 60 RTS 65 02 df 67 f9 22493
7697 f1c4 ad LDA 65 02 df 67 fb 22499
7698 f1c7 c9 CMP 6f 02 df 65 fb 22503
7699 f1c9 f0 BEQ 6f 02 df 67 fb 22505
7700 f1cd a0 LDY 6f 02 df 67 fb 22508
7701 f1cf a2 LDX 6f 02 e0 e5 fb 22510
7702 f1d1 a9 LDA 6f ff e0 e5 fb 22512
7703 f1d3 85 STA a5 ff e0 e5 fb 22514
7704 f1d5 20 JSR a5 ff e0 e5 fb 22517
7705 fb53 24 BIT a5 ff e0 e5 f9 22523
7706 fb55 18 CLC a5 ff e0 e5 f9 22526
7707 fb56 a9 LDA a5 ff e0 e4 f9 22528
7708 fb58 60 RTS b3 ff e0 e4 f9 22530
7709 f1d8 37 *RLA b3 ff e0 e4 fb 22536
7710 f1da ea NOP 02 ff e0 65 fb 22542
7711 f1db ea NOP 02 ff e0 65 fb 22544
7712 f1dc ea NOP 02 ff e0 65 fb 22546
7713 f1dd ea NOP 02 ff e0 65 fb 22548
7714 f1de 20 JSR 02 ff e0 65 fb 22550
7715 fb59 50 BVC 02 ff e0 65 f9 22556
7716 fb5b 90 BCC 02 ff e0 65 f9 22558
7717 fb5d 30 BMI 02 ff e0 65 f9 22560
7718 fb5f c9 CMP 02 ff e0 65 f9 22562
7719 fb61 d0 BNE 02 ff e0 67 f9 22564
7720 fb63 60 RTS 02 ff e0 67 f9 22566
7721 f1e1 a5 LDA 02 ff e0 67 fb 22572
7722 f1e3 c9 CMP 4a ff e0 65 fb 22575
7723 f1e5 f0 BEQ 4a ff e0 67 fb 22577
7724 f1e9 c8 INY 4a ff e0 67 fb 22580
7725 f1ea a9 LDA 4a ff e1 e5 fb 22582
7726 f1ec 85 STA 29 ff e1 65 fb 22584
7727 f1ee 20 JSR 29 ff e1 65 fb 22587
7728 fb64 b8 CLV 29 ff e1 65 f9 22593
7729 fb65 18 CLC 29 ff e1 25 f9 22595
7730 fb66 a9 LDA 29 ff e1 24 f9 22597
7731 fb68 60 RTS 42 ff e1 24 f9 22599
7732 f1f1 37 *RLA 42 ff e1 24 fb 22605
7733 f1f3 ea NOP 42 ff e1 24 fb 22611
7734 f1f4 ea NOP 42 ff e1 24 fb 22613
7735 f1f5 ea NOP 42 ff e1 24 fb 22615
7736 f1f6 ea NOP 42 ff e1 24 fb 22617
7737 f1f7 20 JSR 42 ff e1 24 fb 22619
7738 fb69 70 BVS 42 ff e1 24 f9 22625
7739 fb6b f0 BEQ 42 ff e1 24 f9 22627
7740 fb6d 30 BMI 42 ff e1 24 f9 22629
7741 fb6f b0 BCS 42 ff e1 24 f9 22631
7742 fb71 c9 CMP 42 ff e1 24 f9 22633
7743 fb73 f0 BEQ 42 ff e1 27 f9 22635
7744 fb77 60 RTS 42 ff e1 27 f9 22638
7745 f1fa a5 LDA 42 ff e1 27 fb 22644
7746 f1fc c9 CMP 52 ff e1 25 fb 22647
7747 f1fe f0 BEQ 52 ff e1 27 fb 22649
7748 f202 c8 INY 52 ff e1 27 fb 22652
7749 f203 a9 LDA 52 ff e2 a5 fb 22654
7750 f205 85 STA 37 ff e2 25 fb 22656
7751 f207 20 JSR 37 ff e2 25 fb 22659
7752 fa68 24 BIT 37 ff e2 25 f9 22665
7753 fa6a 38 SEC 37 ff e2 e5 f9 22668
7754 fa6b a9 LDA 37 ff e2 e5 f9 22670
7755 fa6d 60 RTS 75 ff e2 65 f9 22672
7756 f20a 37 *RLA 75 ff e2 65 fb 22678
7757 f20c ea NOP 65 ff e2 64 fb 22684
7758 f20d ea NOP 65 ff e2 64 fb 22686
7759 f20e ea NOP 65 ff e2 64 fb 22688
7760 f20f ea NOP 65 ff e2 64 fb 22690
7761 f210 20 JSR 65 ff e2 64 fb 22692
7762 fa6e 50 BVC 65 ff e2 64 f9 22698
7763 fa70 f0 BEQ 65 ff e2 64 f9 22700
7764 fa72 30 BMI 65 ff e2 64 f9 22702
7765 fa74 b0 BCS 65 ff e2 64 f9 22704
7766 fa76 c9 CMP 65 ff e2 64 f9 22706
7767 fa78 d0 BNE 65 ff e2 67 f9 22708
7768 fa7a 60 RTS 65 ff e2 67 f9 22710
7769 f213 a5 LDA 65 ff e2 67 fb 22716
7770 f215 c9 CMP 6f ff e2 65 fb 22719
7771 f217 f0 BEQ 6f ff e2 67 fb 22721
7772 f21b a9 LDA 6f ff e2 67 fb 22724
7773 f21d 8d STA a5 ff e2 e5 fb 22726
7774 f220 a0 LDY a5 ff e2 e5 fb 22730
7775 f222 20 JSR a5 ff ff e5 fb 22732
7776 fb53 24 BIT a5 ff ff e5 f9 22738
7777 fb55 18 CLC a5 ff ff e5 f9 22741
7778 fb56 a9 LDA a5 ff ff e4 f9 22743
7779 fb58 60 RTS b3 ff ff e4 f9 22745
7780 f225 3b *RLA b3 ff ff e4 fb 22751
7781 f228 ea NOP 02 ff ff 65 fb 22758
7782 f229 ea NOP 02 ff ff 65 fb 22760
7783 f22a 08 PHP 02 ff ff 65 fb 22762
7784 f22b 48 PHA 02 ff ff 65 fa 22765
7785 f22c a0 LDY 02 ff ff 65 f9 22768
7786 f22e 68 PLA 02 ff e3 e5 f9 22770
7787 f22f 28 PLP 02 ff e3 65 fa 22774
7788 f230 20 JSR 02 ff e3 65 fb 22778
7789 fb59 50 BVC 02 ff e3 65 f9 22784
7790 fb5b 90 BCC 02 ff e3 65 f9 22786
7791 fb5d 30 BMI 02 ff e3 65 f9 22788
7792 fb5f c9 CMP 02 ff e3 65 f9 22790
7793 fb61 d0 BNE 02 ff e3 67 f9 22792
7794 fb63 60 RTS 02 ff e3 67 f9 22794
7795 f233 ad LDA 02 ff e3 67 fb 22800
7796 f236 c9 CMP 4a ff e3 65 fb 22804
7797 f238 f0 BEQ 4a ff e3 67 fb 22806
7798 f23c a0 LDY 4a ff e3 67 fb 22809
7799 f23e a9 LDA 4a ff ff e5 fb 22811
7800 f240 8d STA 29 ff ff 65 fb 22813
7801 f243 20 JSR 29 ff ff 65 fb 22817
7802 fb64 b8 CLV 29 ff ff 65 f9 22823
7803 fb65 18 CLC 29 ff ff 25 f9 22825
7804 fb66 a9 LDA 29 ff ff 24 f9 22827
7805 fb68 60 RTS 42 ff ff 24 f9 22829
7806 f246 3b *RLA 42 ff ff 24 fb 22835
7807 f249 ea NOP 42 ff ff 24 fb 22842
7808 f24a ea NOP 42 ff ff 24 fb 22844
7809 f24b 08 PHP 42 ff ff 24 fb 22846
7810 f24c 48 PHA 42 ff ff 24 fa 22849
7811 f24d a0 LDY 42 ff ff 24 f9 22852
7812 f24f 68 PLA 42 ff e4 a4 f9 22854
7813 f250 28 PLP 42 ff e4 24 fa 22858
7814 f251 20 JSR 42 ff e4 24 fb 22862
7815 fb69 70 BVS 42 ff e4 24 f9 22868
7816 fb6b f0 BEQ 42 ff e4 24 f9 22870
7817 fb6d 30 BMI 42 ff e4 24 f9 22872
7818 fb6f b0 BCS 42 ff e4 24 f9 22874
7819 fb71 c9 CMP 42 ff e4 24 f9 22876
7820 fb73 f0 BEQ 42 ff e4 27 f9 22878
7821 fb77 60 RTS 42 ff e4 27 f9 22881
7822 f254 ad LDA 42 ff e4 27 fb 22887
7823 f257 c9 CMP 52 ff e4 25 fb 22891
7824 f259 f0 BEQ 52 ff e4 27 fb 22893
7825 f25d a0 LDY 52 ff e4 27 fb 22896
7826 f25f a9 LDA 52 ff ff a5 fb 22898
7827 f261 8d STA 37 ff ff 25 fb 22900
7828 f264 20 JSR 37 ff ff 25 fb 22904
7829 fa68 24 BIT 37 ff ff 25 f9 22910
7830 fa6a 38 SEC 37 ff ff e5 f9 22913
7831 fa6b a9 LDA 37 ff ff e5 f9 22915
7832 fa6d 60 RTS 75 ff ff 65 f9 22917
7833 f267 3b *RLA 75 ff ff 65 fb 22923
7834 f26a ea NOP 65 ff ff 64 fb 22930
7835 f26b ea NOP 65 ff ff 64 fb 22932
7836 f26c 08 PHP 65 ff ff 64 fb 22934
7837 f26d 48 PHA 65 ff ff 64 fa 22937
7838 f26e a0 LDY 65 ff ff 64 f9 22940
7839 f270 68 PLA 65 ff e5 e4 f9 22942
7840 f271 28 PLP 65 ff e5 64 fa 22946
7841 f272 20 JSR 65 ff e5 64 fb 22950
7842 fa6e 50 BVC 65 ff e5 64 f9 22956
7843 fa70 f0 BEQ 65 ff e5 64 f9 22958
7844 fa72 30 BMI 65 ff e5 64 f9 22960
7845 fa74 b0 BCS 65 ff e5 64 f9 22962
7846 fa76 c9 CMP 65 ff e5 64 f9 22964
7847 fa78 d0 BNE 65 ff e5 67 f9 22966
7848 fa7a 60 RTS 65 ff e5 67 f9 22968
7849 f275 ad LDA 65 ff e5 67 fb 22974
7850 f278 c9 CMP 6f ff e5 65 fb 22978
7851 f27a f0 BEQ 6f ff e5 67 fb 22980
7852 f27e a0 LDY 6f ff e5 67 fb 22983
7853 f280 a2 LDX 6f ff e6 e5 fb 22985
7854 f282 a9 LDA 6f ff e6 e5 fb 22987
7855 f284 8d STA a5 ff e6 e5 fb 22989
7856 f287 20 JSR a5 ff e6 e5 fb 22993
7857 fb53 24 BIT a5 ff e6 e5 f9 22999
7858 fb55 18 CLC a5 ff e6 e5 f9 23002
7859 fb56 a9 LDA a5 ff e6 e4 f9 23004
7860 fb58 60 RTS b3 ff e6 e4 f9 23006
7861 f28a 3f *RLA b3 ff e6 e4 fb 23012
7862 f28d ea NOP 02 ff e6 65 fb 23019
7863 f28e ea NOP 02 ff e6 65 fb 23021
7864 f28f ea NOP 02 ff e6 65 fb 23023
7865 f290 ea NOP 02 ff e6 65 fb 23025
7866 f291 20 JSR 02 ff e6 65 fb 23027
7867 fb59 50 BVC 02 ff e6 65 f9 23033
7868 fb5b 90 BCC 02 ff e6 65 f9 23035
7869 fb5d 30 BMI 02 ff e6 65 f9 23037
7870 fb5f c9 CMP 02 ff e6 65 f9 23039
7871 fb61 d0 BNE 02 ff e6 67 f9 23041
7872 fb63 60 RTS 02 ff e6 67 f9 23043
7873 f294 ad LDA 02 ff e6 67 fb 23049
7874 f297 c9 CMP 4a ff e6 65 fb 23053
7875 f299 f0 BEQ 4a ff e6 67 fb 23055
7876 f29d c8 INY 4a ff e6 67 fb 23058
7877 f29e a9 LDA 4a ff e7 e5 fb 23060
7878 f2a0 8d STA 29 ff e7 65 fb 23062
7879 f2a3 20 JSR 29 ff e7 65 fb 23066
7880 fb64 b8 CLV 29 ff e7 65 f9 23072
7881 fb65 18 CLC 29 ff e7 25 f9 23074
7882 fb66 a9 LDA 29 ff e7 24 f9 23076
7883 fb68 60 RTS 42 ff e7 24 f9 23078
7884 f2a6 3f *RLA 42 ff e7 24 fb 23084
7885 f2a9 ea NOP 42 ff e7 24 fb 23091
7886 f2aa ea NOP 42 ff e7 24 fb 23093
7887 f2ab ea NOP 42 ff e7 24 fb 23095
7888 f2ac ea NOP 42 ff e7 24 fb 23097
7889 f2ad 20 JSR 42 ff e7 24 fb 23099
7890 fb69 70 BVS 42 ff e7 24 f9 23105
7891 fb6b f0 BEQ 42 ff e7 24 f9 23107
7892 fb6d 30 BMI 42 ff e7 24 f9 23109
7893 fb6f b0 BCS 42 ff e7 24 f9 23111
7894 fb71 c9 CMP 42 ff e7 24 f9 23113
7895 fb73 f0 BEQ 42 ff e7 27 f9 23115
7896 fb77 60 RTS 42 ff e7 27 f9 23118
7897 f2b0 ad LDA 42 ff e7 27 fb 23124
7898 f2b3 c9 CMP 52 ff e7 25 fb 23128
7899 f2b5 f0 BEQ 52 ff e7 27 fb 23130
7900 f2b9 c8 INY 52 ff e7 27 fb 23133
7901 f2ba a9 LDA 52 ff e8 a5 fb 23135
7902 f2bc 8d STA 37 ff e8 25 fb 23137
7903 f2bf 20 JSR 37 ff e8 25 fb 23141
7904 fa68 24 BIT 37 ff e8 25 f9 23147
7905 fa6a 38 SEC 37 ff e8 e5 f9 23150
7906 fa6b a9 LDA 37 ff e8 e5 f9 23152
7907 fa6d 60 RTS 75 ff e8 65 f9 23154
7908 f2c2 3f *RLA 75 ff e8 65 fb 23160
7909 f2c5 ea NOP 65 ff e8 64 fb 23167
7910 f2c6 ea NOP 65 ff e8 64 fb 23169
7911 f2c7 ea NOP 65 ff e8 64 fb 23171
7912 f2c8 ea NOP 65 ff e8 64 fb 23173
7913 f2c9 20 JSR 65 ff e8 64 fb 23175
7914 fa6e 50 BVC 65 ff e8 64 f9 23181
7915 fa70 f0 BEQ 65 ff e8 64 f9 23183
7916 fa72 30 BMI 65 ff e8 64 f9 23185
7917 fa74 b0 BCS 65 ff e8 64 f9 23187
7918 fa76 c9 CMP 65 ff e8 64 f9 23189
7919 fa78 d0 BNE 65 ff e8 67 f9 23191
7920 fa7a 60 RTS 65 ff e8 67 f9 23193
7921 f2cc ad LDA 65 ff e8 67 fb 23199
7922 f2cf c9 CMP 6f ff e8 65 fb 23203
7923 f2d1 f0 BEQ 6f ff e8 67 fb 23205
7924 f2d5 60 RTS 6f ff e8 67 fb 23208
7925 c647 20 JSR 6f ff e8 67 fd 23214
7926 f2d6 a9 LDA 6f ff e8 67 fb 23220
7927 f2d8 85 STA ff ff e8 e5 fb 23222
7928 f2da a0 LDY ff ff e8 e5 fb 23225
7929 f2dc a2 LDX ff ff e9 e5 fb 23227
7930 f2de a9 LDA ff 02 e9 65 fb 23229
7931 f2e0 85 STA 47 02 e9 65 fb 23231
7932 f2e2 a9 LDA 47 02 e9 65 fb 23234
7933 f2e4 85 STA 06 02 e9 65 fb 23236
7934 f2e6 a9 LDA 06 02 e9 65 fb 23239
7935 f2e8 8d STA a5 02 e9 e5 fb 23241
7936 f2eb 20 JSR a5 02 e9 e5 fb 23245
7937 fb1d 24 BIT a5 02 e9 e5 f9 23251
7938 fb1f 18 CLC a5 02 e9 e5 f9 23254
7939 fb20 a9 LDA a5 02 e9 e4 f9 23256
7940 fb22 60 RTS b3 02 e9 e4 f9 23258
7941 f2ee 43 *SRE b3 02 e9 e4 fb 23264
7942 f2f0 ea NOP e1 02 e9 e5 fb 23272
7943 f2f1 ea NOP e1 02 e9 e5 fb 23274
7944 f2f2 ea NOP e1 02 e9 e5 fb 23276
7945 f2f3 ea NOP e1 02 e9 e5 fb 23278
7946 f2f4 20 JSR e1 02 e9 e5 fb 23280
7947 fb23 50 BVC e1 02 e9 e5 f9 23286
7948 fb25 90 BCC e1 02 e9 e5 f9 23288
7949 fb27 10 BPL e1 02 e9 e5 f9 23290
7950 fb29 c9 CMP e1 02 e9 e5 f9 23292
7951 fb2b d0 BNE e1 02 e9 67 f9 23294
7952 fb2d 60 RTS e1 02 e9 67 f9 23296
7953 f2f7 ad LDA e1 02 e9 67 fb 23302
7954 f2fa c9 CMP 52 02 e9 65 fb 23306
7955 f2fc f0 BEQ 52 02 e9 67 fb 23308
7956 f300 c8 INY 52 02 e9 67 fb 23312
7957 f301 a9 LDA 52 02 ea e5 fb 23314
7958 f303 8d STA 29 02 ea 65 fb 23316
7959 f306 20 JSR 29 02 ea 65 fb 23320
7960 fb2e b8 CLV 29 02 ea 65 f9 23326
7961 fb2f 18 CLC 29 02 ea 25 f9 23328
7962 fb30 a9 LDA 29 02 ea 24 f9 23330
7963 fb32 60 RTS 42 02 ea 24 f9 23332
7964 f309 43 *SRE 42 02 ea 24 fb 23338
7965 f30b ea NOP 56 02 ea 25 fb 23346
7966 f30c ea NOP 56 02 ea 25 fb 23348
7967 f30d ea NOP 56 02 ea 25 fb 23350
7968 f30e ea NOP 56 02 ea 25 fb 23352
7969 f30f 20 JSR 56 02 ea 25 fb 23354
7970 fb33 70 BVS 56 02 ea 25 f9 23360
7971 fb35 f0 BEQ 56 02 ea 25 f9 23362
7972 fb37 30 BMI 56 02 ea 25 f9 23364
7973 fb39 90 BCC 56 02 ea 25 f9 23366
7974 fb3b c9 CMP 56 02 ea 25 f9 23368
7975 fb3d d0 BNE 56 02 ea 27 f9 23370
7976 fb3f 60 RTS 56 02 ea 27 f9 23372
7977 f312 ad LDA 56 02 ea 27 fb 23378
7978 f315 c9 CMP 14 02 ea 25 fb 23382
7979 f317 f0 BEQ 14 02 ea 27 fb 23384
7980 f31b c8 INY 14 02 ea 27 fb 23387
7981 f31c a9 LDA 14 02 eb a5 fb 23389
7982 f31e 8d STA 37 02 eb 25 fb 23391
7983 f321 20 JSR 37 02 eb 25 fb 23395
7984 fb40 24 BIT 37 02 eb 25 f9 23401
7985 fb42 38 SEC 37 02 eb e5 f9 23404
7986 fb43 a9 LDA 37 02 eb e5 f9 23406
7987 fb45 60 RTS 75 02 eb 65 f9 23408
7988 f324 43 *SRE 75 02 eb 65 fb 23414
7989 f326 ea NOP 6e 02 eb 65 fb 23422
7990 f327 ea NOP 6e 02 eb 65 fb 23424
7991 f328 ea NOP 6e 02 eb 65 fb 23426
7992 f329 ea NOP 6e 02 eb 65 fb 23428
7993 f32a 20 JSR 6e 02 eb 65 fb 23430
7994 fb46 50 BVC 6e 02 eb 65 f9 23436
7995 fb48 f0 BEQ 6e 02 eb 65 f9 23438
7996 fb4a 30 BMI 6e 02 eb 65 f9 23440
7997 fb4c 90 BCC 6e 02 eb 65 f9 23442
7998 fb4e c9 CMP 6e 02 eb 65 f9 23444
7999 fb50 d0 BNE 6e 02 eb 67 f9 23446
8000 fb52 60 RTS 6e 02 eb 67 f9 23448
8001 f32d ad LDA 6e 02 eb 67 fb 23454
8002 f330 c9 CMP 1b 02 eb 65 fb 23458
8003 f332 f0 BEQ 1b 02 eb 67 fb 23460
8004 f336 c8 INY 1b 02 eb 67 fb 23463
8005 f337 a9 LDA 1b 02 ec e5 fb 23465
8006 f339 85 STA a5 02 ec e5 fb 23467
8007 f33b 20 JSR a5 02 ec e5 fb 23470
8008 fb1d 24 BIT a5 02 ec e5 f9 23476
8009 fb1f 18 CLC a5 02 ec e5 f9 23479
8010 fb20 a9 LDA a5 02 ec e4 f9 23481
8011 fb22 60 RTS b3 02 ec e4 f9 23483
8012 f33e 47 *SRE b3 02 ec e4 fb 23489
8013 f340 ea NOP e1 02 ec e5 fb 23494
8014 f341 ea NOP e1 02 ec e5 fb 23496
8015 f342 ea NOP e1 02 ec e5 fb 23498
8016 f343 ea NOP e1 02 ec e5 fb 23500
8017 f344 20 JSR e1 02 ec e5 fb 23502
8018 fb23 50 BVC e1 02 ec e5 f9 23508
8019 fb25 90 BCC e1 02 ec e5 f9 23510
8020 fb27 10 BPL e1 02 ec e5 f9 23512
8021 fb29 c9 CMP e1 02 ec e5 f9 23514
8022 fb2b d0 BNE e1 02 ec 67 f9 23516
8023 fb2d 60 RTS e1 02 ec 67 f9 23518
8024 f347 a5 LDA e1 02 ec 67 fb 23524
8025 f349 c9 CMP 52 02 ec 65 fb 23527
8026 f34b f0 BEQ 52 02 ec 67 fb 23529
8027 f34f c8 INY 52 02 ec 67 fb 23532
8028 f350 a9 LDA 52 02 ed e5 fb 23534
8029 f352 85 STA 29 02 ed 65 fb 23536
8030 f354 20 JSR 29 02 ed 65 fb 23539
8031 fb2e b8 CLV 29 02 ed 65 f9 23545
8032 fb2f 18 CLC 29 02 ed 25 f9 23547
8033 fb30 a9 LDA 29 02 ed 24 f9 23549
8034 fb32 60 RTS 42 02 ed 24 f9 23551
8035 f357 47 *SRE 42 02 ed 24 fb 23557
8036 f359 ea NOP 56 02 ed 25 fb 23562
8037 f35a ea NOP 56 02 ed 25 fb 23564
8038 f35b ea NOP 56 02 ed 25 fb 23566
8039 f35c ea NOP 56 02 ed 25 fb 23568
8040 f35d 20 JSR 56 02 ed 25 fb 23570
8041 fb33 70 BVS 56 02 ed 25 f9 23576
8042 fb35 f0 BEQ 56 02 ed 25 f9 23578
8043 fb37 30 BMI 56 02 ed 25 f9 23580
8044 fb39 90 BCC 56 02 ed 25 f9 23582
8045 fb3b c9 CMP 56 02 ed 25 f9 23584
8046 fb3d d0 BNE 56 02 ed 27 f9 23586
8047 fb3f 60 RTS 56 02 ed 27 f9 23588
8048 f360 a5 LDA 56 02 ed 27 fb 23594
8049 f362 c9 CMP 14 02 ed 25 fb 23597
8050 f364 f0 BEQ 14 02 ed 27 fb 23599
8051 f368 c8 INY 14 02 ed 27 fb 23602
8052 f369 a9 LDA 14 02 ee a5 fb 23604
8053 f36b 85 STA 37 02 ee 25 fb 23606
8054 f36d 20 JSR 37 02 ee 25 fb 23609
8055 fb40 24 BIT 37 02 ee 25 f9 23615
8056 fb42 38 SEC 37 02 ee e5 f9 23618
8057 fb43 a9 LDA 37 02 ee e5 f9 23620
8058 fb45 60 RTS 75 02 ee 65 f9 23622
8059 f370 47 *SRE 75 02 ee 65 fb 23628
8060 f372 ea NOP 6e 02 ee 65 fb 23633
8061 f373 ea NOP 6e 02 ee 65 fb 23635
8062 f374 ea NOP 6e 02 ee 65 fb 23637
8063 f375 ea NOP 6e 02 ee 65 fb 23639
8064 f376 20 JSR 6e 02 ee 65 fb 23641
8065 fb46 50 BVC 6e 02 ee 65 f9 23647
8066 fb48 f0 BEQ 6e 02 ee 65 f9 23649
8067 fb4a 30 BMI 6e 02 ee 65 f9 23651
8068 fb4c 90 BCC 6e 02 ee 65 f9 23653
8069 fb4e c9 CMP 6e 02 ee 65 f9 23655
8070 fb50 d0 BNE 6e 02 ee 67 f9 23657
8071 fb52 60 RTS 6e 02 ee 67 f9 23659
8072 f379 a5 LDA 6e 02 ee 67 fb 23665
8073 f37b c9 CMP 1b 02 ee 65 fb 23668
8074 f37d f0 BEQ 1b 02 ee 67 fb 23670
8075 f381 c8 INY 1b 02 ee 67 fb 23673
8076 f382 a9 LDA 1b 02 ef e5 fb 23675
8077 f384 8d STA a5 02 ef e5 fb 23677
8078 f387 20 JSR a5 02 ef e5 fb 23681
8079 fb1d 24 BIT a5 02 ef e5 f9 23687
8080 fb1f 18 CLC a5 02 ef e5 f9 23690
8081 fb20 a9 LDA a5 02 ef e4 f9 23692
8082 fb22 60 RTS b3 02 ef e4 f9 23694
8083 f38a 4f *SRE b3 02 ef e4 fb 23700
8084 f38d ea NOP e1 02 ef e5 fb 23706
8085 f38e ea NOP e1 02 ef e5 fb 23708
8086 f38f ea NOP e1 02 ef e5 fb 23710
8087 f390 ea NOP e1 02 ef e5 fb 23712
8088 f391 20 JSR e1 02 ef e5 fb 23714
8089 fb23 50 BVC e1 02 ef e5 f9 23720
8090 fb25 90 BCC e1 02 ef e5 f9 23722
8091 fb27 10 BPL e1 02 ef e5 f9 23724
8092 fb29 c9 CMP e1 02 ef e5 f9 23726
8093 fb2b d0 BNE e1 02 ef 67 f9 23728
8094 fb2d 60 RTS e1 02 ef 67 f9 23730
8095 f394 ad LDA e1 02 ef 67 fb 23736
8096 f397 c9 CMP 52 02 ef 65 fb 23740
8097 f399 f0 BEQ 52 02 ef 67 fb 23742
8098 f39d c8 INY 52 02 ef 67 fb 23745
8099 f39e a9 LDA 52 02 f0 e5 fb 23747
8100 f3a0 8d STA 29 02 f0 65 fb 23749
8101 f3a3 20 JSR 29 02 f0 65 fb 23753
8102 fb2e b8 CLV 29 02 f0 65 f9 23759
8103 fb2f 18 CLC 29 02 f0 25 f9 23761
8104 fb30 a9 LDA 29 02 f0 24 f9 23763
8105 fb32 60 RTS 42 02 f0 24 f9 23765
8106 f3a6 4f *SRE 42 02 f0 24 fb 23771
8107 f3a9 ea NOP 56 02 f0 25 fb 23777
8108 f3aa ea NOP 56 02 f0 25 fb 23779
8109 f3ab ea NOP 56 02 f0 25 fb 23781
8110 f3ac ea NOP 56 02 f0 25 fb 23783
8111 f3ad 20 JSR 56 02 f0 25 fb 23785
8112 fb33 70 BVS 56 02 f0 25 f9 23791
8113 fb35 f0 BEQ 56 02 f0 25 f9 23793
8114 fb37 30 BMI 56 02 f0 25 f9 23795
8115 fb39 90 BCC 56 02 f0 25 f9 23797
8116 fb3b c9 CMP 56 02 f0 25 f9 23799
8117 fb3d d0 BNE 56 02 f0 27 f9 23801
8118 fb3f 60 RTS 56 02 f0 27 f9 23803
8119 f3b0 ad LDA 56 02 f0 27 fb 23809
8120 f3b3 c9 CMP 14 02 f0 25 fb 23813
8121 f3b5 f0 BEQ 14 02 f0 27 fb 23815
8122 f3b9 c8 INY 14 02 f0 27 fb 23818
8123 f3ba a9 LDA 14 02 f1 a5 fb 23820
8124 f3bc 8d STA 37 02 f1 25 fb 23822
8125 f3bf 20 JSR 37 02 f1 25 fb 23826
8126 fb40 24 BIT 37 02 f1 25 f9 23832
8127 fb42 38 SEC 37 02 f1 e5 f9 23835
8128 fb43 a9 LDA 37 02 f1 e5 f9 23837
8129 fb45 60 RTS 75 02 f1 65 f9 23839
8130 f3c2 4f *SRE 75 02 f1 65 fb 23845
8131 f3c5 ea NOP 6e 02 f1 65 fb 23851
8132 f3c6 ea NOP 6e 02 f1 65 fb 23853
8133 f3c7 ea NOP 6e 02 f1 65 fb 23855
8134 f3c8 ea NOP 6e 02 f1 65 fb 23857
8135 f3c9 20 JSR 6e 02 f1 65 fb 23859
8136 fb46 50 BVC 6e 02 f1 65 f9 23865
8137 fb48 f0 BEQ 6e 02 f1 65 f9 23867
8138 fb4a 30 BMI 6e 02 f1 65 f9 23869
8139 fb4c 90 BCC 6e 02 f1 65 f9 23871
8140 fb4e c9 CMP 6e 02 f1 65 f9 23873
8141 fb50 d0 BNE 6e 02 f1 67 f9 23875
8142 fb52 60 RTS 6e 02 f1 67 f9 23877
8143 f3cc ad LDA 6e 02 f1 67 fb 23883
8144 f3cf c9 CMP 1b 02 f1 65 fb 23887
8145 f3d1 f0 BEQ 1b 02 f1 67 fb 23889
8146 f3d5 a9 LDA 1b 02 f1 67 fb 23892
8147 f3d7 8d STA a5 02 f1 e5 fb 23894
8148 f3da a9 LDA a5 02 f1 e5 fb 23898
8149 f3dc 85 STA 48 02 f1 65 fb 23900
8150 f3de a9 LDA 48 02 f1 65 fb 23903
8151 f3e0 85 STA 05 02 f1 65 fb 23905
8152 f3e2 a0 LDY 05 02 f1 65 fb 23908
8153 f3e4 20 JSR 05 02 ff e5 fb 23910
8154 fb1d 24 BIT 05 02 ff e5 f9 23916
8155 fb1f 18 CLC 05 02 ff e5 f9 23919
8156 fb20 a9 LDA 05 02 ff e4 f9 23921
8157 fb22 60 RTS b3 02 ff e4 f9 23923
8158 f3e7 53 *SRE b3 02 ff e4 fb 23929
8159 f3e9 ea NOP e1 02 ff e5 fb 23937
8160 f3ea ea NOP e1 02 ff e5 fb 23939
8161 f3eb 08 PHP e1 02 ff e5 fb 23941
8162 f3ec 48 PHA e1 02 ff e5 fa 23944
8163 f3ed a0 LDY e1 02 ff e5 f9 23947
8164 f3ef 68 PLA e1 02 f2 e5 f9 23949
8165 f3f0 28 PLP e1 02 f2 e5 fa 23953
8166 f3f1 20 JSR e1 02 f2 e5 fb 23957
8167 fb23 50 BVC e1 02 f2 e5 f9 23963
8168 fb25 90 BCC e1 02 f2 e5 f9 23965
8169 fb27 10 BPL e1 02 f2 e5 f9 23967
8170 fb29 c9 CMP e1 02 f2 e5 f9 23969
8171 fb2b d0 BNE e1 02 f2 67 f9 23971
8172 fb2d 60 RTS e1 02 f2 67 f9 23973
8173 f3f4 ad LDA e1 02 f2 67 fb 23979
8174 f3f7 c9 CMP 52 02 f2 65 fb 23983
8175 f3f9 f0 BEQ 52 02 f2 67 fb 23985
8176 f3fd a0 LDY 52 02 f2 67 fb 23988
8177 f3ff a9 LDA 52 02 ff e5 fb 23990
8178 f401 8d STA 29 02 ff 65 fb 23992
8179 f404 20 JSR 29 02 ff 65 fb 23996
8180 fb2e b8 CLV 29 02 ff 65 f9 24002
8181 fb2f 18 CLC 29 02 ff 25 f9 24004
8182 fb30 a9 LDA 29 02 ff 24 f9 24006
8183 fb32 60 RTS 42 02 ff 24 f9 24008
8184 f407 53 *SRE 42 02 ff 24 fb 24014
8185 f409 ea NOP 56 02 ff 25 fb 24022
8186 f40a ea NOP 56 02 ff 25 fb 24024
8187 f40b 08 PHP 56 02 ff 25 fb 24026
8188 f40c 48 PHA 56 02 ff 25 fa 24029
8189 f40d a0 LDY 56 02 ff 25 f9 24032
8190 f40f 68 PLA 56 02 f3 a5 f9 24034
8191 f410 28 PLP 56 02 f3 25 fa 24038
8192 f411 20 JSR 56 02 f3 25 fb 24042
8193 fb33 70 BVS 56 02 f3 25 f9 24048
8194 fb35 f0 BEQ 56 02 f3 25 f9 24050
8195 fb37 30 BMI 56 02 f3 25 f9 24052
8196 fb39 90 BCC 56 02 f3 25 f9 24054
8197 fb3b c9 CMP 56 02 f3 25 f9 24056
8198 fb3d d0 BNE 56 02 f3 27 f9 24058
8199 fb3f 60 RTS 56 02 f3 27 f9 24060
8200 f414 ad LDA 56 02 f3 27 fb 24066
8201 f417 c9 CMP 14 02 f3 25 fb 24070
8202 f419 f0 BEQ 14 02 f3 27 fb 24072
8203 f41d a0 LDY 14 02 f3 27 fb 24075
8204 f41f a9 LDA 14 02 ff a5 fb 24077
8205 f421 8d STA 37 02 ff 25 fb 24079
8206 f424 20 JSR 37 02 ff 25 fb 24083
8207 fb40 24 BIT 37 02 ff 25 f9 24089
8208 fb42 38 SEC 37 02 ff e5 f9 24092
8209 fb43 a9 LDA 37 02 ff e5 f9 24094
8210 fb45 60 RTS 75 02 ff 65 f9 24096
8211 f427 53 *SRE 75 02 ff 65 fb 24102
8212 f429 ea NOP 6e 02 ff 65 fb 24110
8213 f42a ea NOP 6e 02 ff 65 fb 24112
8214 f42b 08 PHP 6e 02 ff 65 fb 24114
8215 f42c 48 PHA 6e 02 ff 65 fa 24117
8216 f42d a0 LDY 6e 02 ff 65 f9 24120
8217 f42f 68 PLA 6e 02 f4 e5 f9 24122
8218 f430 28 PLP 6e 02 f4 65 fa 24126
8219 f431 20 JSR 6e 02 f4 65 fb 24130
8220 fb46 50 BVC 6e 02 f4 65 f9 24136
8221 fb48 f0 BEQ 6e 02 f4 65 f9 24138
8222 fb4a 30 BMI 6e 02 f4 65 f9 24140
8223 fb4c 90 BCC 6e 02 f4 65 f9 24142
8224 fb4e c9 CMP 6e 02 f4 65 f9 24144
8225 fb50 d0 BNE 6e 02 f4 67 f9 24146
8226 fb52 60 RTS 6e 02 f4 67 f9 24148
8227 f434 ad LDA 6e 02 f4 67 fb 24154
8228 f437 c9 CMP 1b 02 f4 65 fb 24158
8229 f439 f0 BEQ 1b 02 f4 67 fb 24160
8230 f43d a0 LDY 1b 02 f4 67 fb 24163
8231 f43f a2 LDX 1b 02 f5 e5 fb 24165
8232 f441 a9 LDA 1b ff f5 e5 fb 24167
8233 f443 85 STA a5 ff f5 e5 fb 24169
8234 f445 20 JSR a5 ff f5 e5 fb 24172
8235 fb1d 24 BIT a5 ff f5 e5 f9 24178
8236 fb1f 18 CLC a5 ff f5 e5 f9 24181
8237 fb20 a9 LDA a5 ff f5 e4 f9 24183
8238 fb22 60 RTS b3 ff f5 e4 f9 24185
8239 f448 57 *SRE b3 ff f5 e4 fb 24191
8240 f44a ea NOP e1 ff f5 e5 fb 24197
8241 f44b ea NOP e1 ff f5 e5 fb 24199
8242 f44c ea NOP e1 ff f5 e5 fb 24201
8243 f44d ea NOP e1 ff f5 e5 fb 24203
8244 f44e 20 JSR e1 ff f5 e5 fb 24205
8245 fb23 50 BVC e1 ff f5 e5 f9 24211
8246 fb25 90 BCC e1 ff f5 e5 f9 24213
8247 fb27 10 BPL e1 ff f5 e5 f9 24215
8248 fb29 c9 CMP e1 ff f5 e5 f9 24217
8249 fb2b d0 BNE e1 ff f5 67 f9 24219
8250 fb2d 60 RTS e1 ff f5 67 f9 24221
8251 f451 a5 LDA e1 ff f5 67 fb 24227
8252 f453 c9 CMP 52 ff f5 65 fb 24230
8253 f455 f0 BEQ 52 ff f5 67 fb 24232
8254 f459 c8 INY 52 ff f5 67 fb 24235
8255 f45a a9 LDA 52 ff f6 e5 fb 24237
8256 f45c 85 STA 29 ff f6 65 fb 24239
8257 f45e 20 JSR 29 ff f6 65 fb 24242
8258 fb2e b8 CLV 29 ff f6 65 f9 24248
8259 fb2f 18 CLC 29 ff f6 25 f9 24250
8260 fb30 a9 LDA 29 ff f6 24 f9 24252
8261 fb32 60 RTS 42 ff f6 24 f9 24254
8262 f461 57 *SRE 42 ff f6 24 fb 24260
8263 f463 ea NOP 56 ff f6 25 fb 24266
8264 f464 ea NOP 56 ff f6 25 fb 24268
8265 f465 ea NOP 56 ff f6 25 fb 24270
8266 f466 ea NOP 56 ff f6 25 fb 24272
8267 f467 20 JSR 56 ff f6 25 fb 24274
8268 fb33 70 BVS 56 ff f6 25 f9 24280
8269 fb35 f0 BEQ 56 ff f6 25 f9 24282
8270 fb37 30 BMI 56 ff f6 25 f9 24284
8271 fb39 90 BCC 56 ff f6 25 f9 24286
8272 fb3b c9 CMP 56 ff f6 25 f9 24288
8273 fb3d d0 BNE 56 ff f6 27 f9 24290
8274 fb3f 60 RTS 56 ff f6 27 f9 24292
8275 f46a a5 LDA 56 ff f6 27 fb 24298
8276 f46c c9 CMP 14 ff f6 25 fb 24301
8277 f46e f0 BEQ 14 ff f6 27 fb 24303
8278 f472 c8 INY 14 ff f6 27 fb 24306
8279 f473 a9 LDA 14 ff f7 a5 fb 24308
8280 f475 85 STA 37 ff f7 25 fb 24310
8281 f477 20 JSR 37 ff f7 25 fb 24313
8282 fb40 24 BIT 37 ff f7 25 f9 24319
8283 fb42 38 SEC 37 ff f7 e5 f9 24322
8284 fb43 a9 LDA 37 ff f7 e5 f9 24324
8285 fb45 60 RTS 75 ff f7 65 f9 24326
8286 f47a 57 *SRE 75 ff f7 65 fb 24332
8287 f47c ea NOP 6e ff f7 65 fb 24338
8288 f47d ea NOP 6e ff f7 65 fb 24340
8289 f47e ea NOP 6e ff f7 65 fb 24342
8290 f47f ea NOP 6e ff f7 65 fb 24344
8291 f480 20 JSR 6e ff f7 65 fb 24346
8292 fb46 50 BVC 6e ff f7 65 f9 24352
8293 fb48 f0 BEQ 6e ff f7 65 f9 24354
8294 fb4a 30 BMI 6e ff f7 65 f9 24356
8295 fb4c 90 BCC 6e ff f7 65 f9 24358
8296 fb4e c9 CMP 6e ff f7 65 f9 24360
8297 fb50 d0 BNE 6e ff f7 67 f9 24362
8298 fb52 60 RTS 6e ff f7 67 f9 24364
8299 f483 a5 LDA 6e ff f7 67 fb 24370
8300 f485 c9 CMP 1b ff f7 65 fb 24373
8301 f487 f0 BEQ 1b ff f7 67 fb 24375
8302 f48b a9 LDA 1b ff f7 67 fb 24378
8303 f48d 8d STA a5 ff f7 e5 fb 24380
8304 f490 a0 LDY a5 ff f7 e5 fb 24384
8305 f492 20 JSR a5 ff ff e5 fb 24386
8306 fb1d 24 BIT a5 ff ff e5 f9 24392
8307 fb1f 18 CLC a5 ff ff e5 f9 24395
8308 fb20 a9 LDA a5 ff ff e4 f9 24397
8309 fb22 60 RTS b3 ff ff e4 f9 24399
8310 f495 5b *SRE b3 ff ff e4 fb 24405
8311 f498 ea NOP e1 ff ff e5 fb 24412
8312 f499 ea NOP e1 ff ff e5 fb 24414
8313 f49a 08 PHP e1 ff ff e5 fb 24416
8314 f49b 48 PHA e1 ff ff e5 fa 24419
8315 f49c a0 LDY e1 ff ff e5 f9 24422
8316 f49e 68 PLA e1 ff f8 e5 f9 24424
8317 f49f 28 PLP e1 ff f8 e5 fa 24428
8318 f4a0 20 JSR e1 ff f8 e5 fb 24432
8319 fb23 50 BVC e1 ff f8 e5 f9 24438
8320 fb25 90 BCC e1 ff f8 e5 f9 24440
8321 fb27 10 BPL e1 ff f8 e5 f9 24442
8322 fb29 c9 CMP e1 ff f8 e5 f9 24444
8323 fb2b d0 BNE e1 ff f8 67 f9 24446
8324 fb2d 60 RTS e1 ff f8 67 f9 24448
8325 f4a3 ad LDA e1 ff f8 67 fb 24454
8326 f4a6 c9 CMP 52 ff f8 65 fb 24458
8327 f4a8 f0 BEQ 52 ff f8 67 fb 24460
8328 f4ac a0 LDY 52 ff f8 67 fb 24463
8329 f4ae a9 LDA 52 ff ff e5 fb 24465
8330 f4b0 8d STA 29 ff ff 65 fb 24467
8331 f4b3 20 JSR 29 ff ff 65 fb 24471
8332 fb2e b8 CLV 29 ff ff 65 f9 24477
8333 fb2f 18 CLC 29 ff ff 25 f9 24479
8334 fb30 a9 LDA 29 ff ff 24 f9 24481
8335 fb32 60 RTS 42 ff ff 24 f9 24483
8336 f4b6 5b *SRE 42 ff ff 24 fb 24489
8337 f4b9 ea NOP 56 ff ff 25 fb 24496
8338 f4ba ea NOP 56 ff ff 25 fb 24498
8339 f4bb 08 PHP 56 ff ff 25 fb 24500
8340 f4bc 48 PHA 56 ff ff 25 fa 24503
8341 f4bd a0 LDY 56 ff ff 25 f9 24506
8342 f4bf 68 PLA 56 ff f9 a5 f9 24508
8343 f4c0 28 PLP 56 ff f9 25 fa 24512
8344 f4c1 20 JSR 56 ff f9 25 fb 24516
8345 fb33 70 BVS 56 ff f9 25 f9 24522
8346 fb35 f0 BEQ 56 ff f9 25 f9 24524
8347 fb37 30 BMI 56 ff f9 25 f9 24526
8348 fb39 90 BCC 56 ff f9 25 f9 24528
8349 fb3b c9 CMP 56 ff f9 25 f9 24530
8350 fb3d d0 BNE 56 ff f9 27 f9 24532
8351 fb3f 60 RTS 56 ff f9 27 f9 24534
8352 f4c4 ad LDA 56 ff f9 27 fb 24540
8353 f4c7 c9 CMP 14 ff f9 25 fb 24544
8354 f4c9 f0 BEQ 14 ff f9 27 fb 24546
8355 f4cd a0 LDY 14 ff f9 27 fb 24549
8356 f4cf a9 LDA 14 ff ff a5 fb 24551
8357 f4d1 8d STA 37 ff ff 25 fb 24553
8358 f4d4 20 JSR 37 ff ff 25 fb 24557
8359 fb40 24 BIT 37 ff ff 25 f9 24563
8360 fb42 38 SEC 37 ff ff e5 f9 24566
8361 fb43 a9 LDA 37 ff ff e5 f9 24568
8362 fb45 60 RTS 75 ff ff 65 f9 24570
8363 f4d7 5b *SRE 75 ff ff 65 fb 24576
8364 f4da ea NOP 6e ff ff 65 fb 24583
8365 f4db ea NOP 6e ff ff 65 fb 24585
8366 f4dc 08 PHP 6e ff ff 65 fb 24587
8367 f4dd 48 PHA 6e ff ff 65 fa 24590
8368 f4de a0 LDY 6e ff ff 65 f9 24593
8369 f4e0 68 PLA 6e ff fa e5 f9 24595
8370 f4e1 28 PLP 6e ff fa 65 fa 24599
8371 f4e2 20 JSR 6e ff fa 65 fb 24603
8372 fb46 50 BVC 6e ff fa 65 f9 24609
8373 fb48 f0 BEQ 6e ff fa 65 f9 24611
8374 fb4a 30 BMI 6e ff fa 65 f9 24613
8375 fb4c 90 BCC 6e ff fa 65 f9 24615
8376 fb4e c9 CMP 6e ff fa 65 f9 24617
8377 fb50 d0 BNE 6e ff fa 67 f9 24619
8378 fb52 60 RTS 6e ff fa 67 f9 24621
8379 f4e5 ad LDA 6e ff fa 67 fb 24627
8380 f4e8 c9 CMP 1b ff fa 65 fb 24631
8381 f4ea f0 BEQ 1b ff fa 67 fb 24633
8382 f4ee a0 LDY 1b ff fa 67 fb 24636
8383 f4f0 a2 LDX 1b ff fb e5 fb 24638
8384 f4f2 a9 LDA 1b ff fb e5 fb 24640
8385 f4f4 8d STA a5 ff fb e5 fb 24642
8386 f4f7 20 JSR a5 ff fb e5 fb 24646
8387 fb1d 24 BIT a5 ff fb e5 f9 24652
8388 fb1f 18 CLC a5 ff fb e5 f9 24655
8389 fb20 a9 LDA a5 ff fb e4 f9 24657
8390 fb22 60 RTS b3 ff fb e4 f9 24659
8391 f4fa 5f *SRE b3 ff fb e4 fb 24665
8392 f4fd ea NOP e1 ff fb e5 fb 24672
8393 f4fe ea NOP e1 ff fb e5 fb 24674
8394 f4ff ea NOP e1 ff fb e5 fb 24676
8395 f500 ea NOP e1 ff fb e5 fb 24678
8396 f501 20 JSR e1 ff fb e5 fb 24680
8397 fb23 50 BVC e1 ff fb e5 f9 24686
8398 fb25 90 BCC e1 ff fb e5 f9 24688
8399 fb27 10 BPL e1 ff fb e5 f9 24690
8400 fb29 c9 CMP e1 ff fb e5 f9 24692
8401 fb2b d0 BNE e1 ff fb 67 f9 24694
8402 fb2d 60 RTS e1 ff fb 67 f9 24696
8403 f504 ad LDA e1 ff fb 67 fb 24702
8404 f507 c9 CMP 52 ff fb 65 fb 24706
8405 f509 f0 BEQ 52 ff fb 67 fb 24708
8406 f50d c8 INY 52 ff fb 67 fb 24711
8407 f50e a9 LDA 52 ff fc e5 fb 24713
8408 f510 8d STA 29 ff fc 65 fb 24715
8409 f513 20 JSR 29 ff fc 65 fb 24719
8410 fb2e b8 CLV 29 ff fc 65 f9 24725
8411 fb2f 18 CLC 29 ff fc 25 f9 24727
8412 fb30 a9 LDA 29 ff fc 24 f9 24729
8413 fb32 60 RTS 42 ff fc 24 f9 24731
8414 f516 5f *SRE 42 ff fc 24 fb 24737
8415 f519 ea NOP 56 ff fc 25 fb 24744
8416 f51a ea NOP 56 ff fc 25 fb 24746
8417 f51b ea NOP 56 ff fc 25 fb 24748
8418 f51c ea NOP 56 ff fc 25 fb 24750
8419 f51d 20 JSR 56 ff fc 25 fb 24752
8420 fb33 70 BVS 56 ff fc 25 f9 24758
8421 fb35 f0 BEQ 56 ff fc 25 f9 24760
8422 fb37 30 BMI 56 ff fc 25 f9 24762
8423 fb39 90 BCC 56 ff fc 25 f9 24764
8424 fb3b c9 CMP 56 ff fc 25 f9 24766
8425 fb3d d0 BNE 56 ff fc 27 f9 24768
8426 fb3f 60 RTS 56 ff fc 27 f9 24770
8427 f520 ad LDA 56 ff fc 27 fb 24776
8428 f523 c9 CMP 14 ff fc 25 fb 24780
8429 f525 f0 BEQ 14 ff fc 27 fb 24782
8430 f529 c8 INY 14 ff fc 27 fb 24785
8431 f52a a9 LDA 14 ff fd a5 fb 24787
8432 f52c 8d STA 37 ff fd 25 fb 24789
8433 f52f 20 JSR 37 ff fd 25 fb 24793
8434 fb40 24 BIT 37 ff fd 25 f9 24799
8435 fb42 38 SEC 37 ff fd e5 f9 24802
8436 fb43 a9 LDA 37 ff fd e5 f9 24804
8437 fb45 60 RTS 75 ff fd 65 f9 24806
8438 f532 5f *SRE 75 ff fd 65 fb 24812
8439 f535 ea NOP 6e ff fd 65 fb 24819
8440 f536 ea NOP 6e ff fd 65 fb 24821
8441 f537 ea NOP 6e ff fd 65 fb 24823
8442 f538 ea NOP 6e ff fd 65 fb 24825
8443 f539 20 JSR 6e ff fd 65 fb 24827
8444 fb46 50 BVC 6e ff fd 65 f9 24833
8445 fb48 f0 BEQ 6e ff fd 65 f9 24835
8446 fb4a 30 BMI 6e ff fd 65 f9 24837
8447 fb4c 90 BCC 6e ff fd 65 f9 24839
8448 fb4e c9 CMP 6e ff fd 65 f9 24841
8449 fb50 d0 BNE 6e ff fd 67 f9 24843
8450 fb52 60 RTS 6e ff fd 67 f9 24845
8451 f53c ad LDA 6e ff fd 67 fb 24851
8452 f53f c9 CMP 1b ff fd 65 fb 24855
8453 f541 f0 BEQ 1b ff fd 67 fb 24857
8454 f545 60 RTS 1b ff fd 67 fb 24860
8455 c64a a5 LDA 1b ff fd 67 fd 24866
8456 c64c 85 STA 00 ff fd 67 fd 24869
8457 c64e a9 LDA 00 ff fd 67 fd 24872
8458 c650 85 STA 00 ff fd 67 fd 24874
8459 c652 20 JSR 00 ff fd 67 fd 24877
8460 f546 a9 LDA 00 ff fd 67 fb 24883
8461 f548 85 STA ff ff fd e5 fb 24885
8462 f54a a0 LDY ff ff fd e5 fb 24888
8463 f54c a2 LDX ff ff 01 65 fb 24890
8464 f54e a9 LDA ff 02 01 65 fb 24892
8465 f550 85 STA 47 02 01 65 fb 24894
8466 f552 a9 LDA 47 02 01 65 fb 24897
8467 f554 85 STA 06 02 01 65 fb 24899
8468 f556 a9 LDA 06 02 01 65 fb 24902
8469 f558 8d STA a5 02 01 e5 fb 24904
8470 f55b 20 JSR a5 02 01 e5 fb 24908
8471 fae9 24 BIT a5 02 01 e5 f9 24914
8472 faeb 18 CLC a5 02 01 e5 f9 24917
8473 faec a9 LDA a5 02 01 e4 f9 24919
8474 faee 60 RTS b2 02 01 e4 f9 24921
8475 f55e 63 *RRA b2 02 01 e4 fb 24927
8476 f560 ea NOP 05 02 01 25 fb 24935
8477 f561 ea NOP 05 02 01 25 fb 24937
8478 f562 ea NOP 05 02 01 25 fb 24939
8479 f563 ea NOP 05 02 01 25 fb 24941
8480 f564 20 JSR 05 02 01 25 fb 24943
8481 faef 70 BVS 05 02 01 25 f9 24949
8482 faf1 90 BCC 05 02 01 25 f9 24951
8483 faf3 30 BMI 05 02 01 25 f9 24953
8484 faf5 c9 CMP 05 02 01 25 f9 24955
8485 faf7 d0 BNE 05 02 01 27 f9 24957
8486 faf9 60 RTS 05 02 01 27 f9 24959
8487 f567 ad LDA 05 02 01 27 fb 24965
8488 f56a c9 CMP 52 02 01 25 fb 24969
8489 f56c f0 BEQ 52 02 01 27 fb 24971
8490 f570 c8 INY 52 02 01 27 fb 24974
8491 f571 a9 LDA 52 02 02 25 fb 24976
8492 f573 8d STA 29 02 02 25 fb 24978
8493 f576 20 JSR 29 02 02 25 fb 24982
8494 fafa b8 CLV 29 02 02 25 f9 24988
8495 fafb 18 CLC 29 02 02 25 f9 24990
8496 fafc a9 LDA 29 02 02 24 f9 24992
8497 fafe 60 RTS 42 02 02 24 f9 24994
8498 f579 63 *RRA 42 02 02 24 fb 25000
8499 f57b ea NOP 57 02 02 24 fb 25008
8500 f57c ea NOP 57 02 02 24 fb 25010
8501 f57d ea NOP 57 02 02 24 fb 25012
8502 f57e ea NOP 57 02 02 24 fb 25014
8503 f57f 20 JSR 57 02 02 24 fb 25016
8504 faff 70 BVS 57 02 02 24 f9 25022
8505 fb01 30 BMI 57 02 02 24 f9 25024
8506 fb03 b0 BCS 57 02 02 24 f9 25026
8507 fb05 c9 CMP 57 02 02 24 f9 25028
8508 fb07 d0 BNE 57 02 02 27 f9 25030
8509 fb09 60 RTS 57 02 02 27 f9 25032
8510 f582 ad LDA 57 02 02 27 fb 25038
8511 f585 c9 CMP 14 02 02 25 fb 25042
8512 f587 f0 BEQ 14 02 02 27 fb 25044
8513 f58b c8 INY 14 02 02 27 fb 25047
8514 f58c a9 LDA 14 02 03 25 fb 25049
8515 f58e 8d STA 37 02 03 25 fb 25051
8516 f591 20 JSR 37 02 03 25 fb 25055
8517 fb0a 24 BIT 37 02 03 25 f9 25061
8518 fb0c 38 SEC 37 02 03 e5 f9 25064
8519 fb0d a9 LDA 37 02 03 e5 f9 25066
8520 fb0f 60 RTS 75 02 03 65 f9 25068
8521 f594 63 *RRA 75 02 03 65 fb 25074
8522 f596 ea NOP 11 02 03 25 fb 25082
8523 f597 ea NOP 11 02 03 25 fb 25084
8524 f598 ea NOP 11 02 03 25 fb 25086
8525 f599 ea NOP 11 02 03 25 fb 25088
8526 f59a 20 JSR 11 02 03 25 fb 25090
8527 fb10 70 BVS 11 02 03 25 f9 25096
8528 fb12 30 BMI 11 02 03 25 f9 25098
8529 fb14 90 BCC 11 02 03 25 f9 25100
8530 fb16 c9 CMP 11 02 03 25 f9 25102
8531 fb18 d0 BNE 11 02 03 27 f9 25104
8532 fb1a 60 RTS 11 02 03 27 f9 25106
8533 f59d ad LDA 11 02 03 27 fb 25112
8534 f5a0 c9 CMP 9b 02 03 a5 fb 25116
8535 f5a2 f0 BEQ 9b 02 03 27 fb 25118
8536 f5a6 c8 INY 9b 02 03 27 fb 25121
8537 f5a7 a9 LDA 9b 02 04 25 fb 25123
8538 f5a9 85 STA a5 02 04 a5 fb 25125
8539 f5ab 20 JSR a5 02 04 a5 fb 25128
8540 fae9 24 BIT a5 02 04 a5 f9 25134
8541 faeb 18 CLC a5 02 04 e5 f9 25137
8542 faec a9 LDA a5 02 04 e4 f9 25139
8543 faee 60 RTS b2 02 04 e4 f9 25141
8544 f5ae 67 *RRA b2 02 04 e4 fb 25147
8545 f5b0 ea NOP 05 02 04 25 fb 25152
8546 f5b1 ea NOP 05 02 04 25 fb 25154
8547 f5b2 ea NOP 05 02 04 25 fb 25156
8548 f5b3 ea NOP 05 02 04 25 fb 25158
8549 f5b4 20 JSR 05 02 04 25 fb 25160
8550 faef 70 BVS 05 02 04 25 f9 25166
8551 faf1 90 BCC 05 02 04 25 f9 25168
8552 faf3 30 BMI 05 02 04 25 f9 25170
8553 faf5 c9 CMP 05 02 04 25 f9 25172
8554 faf7 d0 BNE 05 02 04 27 f9 25174
8555 faf9 60 RTS 05 02 04 27 f9 25176
8556 f5b7 a5 LDA 05 02 04 27 fb 25182
8557 f5b9 c9 CMP 52 02 04 25 fb 25185
8558 f5bb f0 BEQ 52 02 04 27 fb 25187
8559 f5bf c8 INY 52 02 04 27 fb 25190
8560 f5c0 a9 LDA 52 02 05 25 fb 25192
8561 f5c2 85 STA 29 02 05 25 fb 25194
8562 f5c4 20 JSR 29 02 05 25 fb 25197
8563 fafa b8 CLV 29 02 05 25 f9 25203
8564 fafb 18 CLC 29 02 05 25 f9 25205
8565 fafc a9 LDA 29 02 05 24 f9 25207
8566 fafe 60 RTS 42 02 05 24 f9 25209
8567 f5c7 67 *RRA 42 02 05 24 fb 25215
8568 f5c9 ea NOP 57 02 05 24 fb 25220
8569 f5ca ea NOP 57 02 05 24 fb 25222
8570 f5cb ea NOP 57 02 05 24 fb 25224
8571 f5cc ea NOP 57 02 05 24 fb 25226
8572 f5cd 20 JSR 57 02 05 24 fb 25228
8573 faff 70 BVS 57 02 05 24 f9 25234
8574 fb01 30 BMI 57 02 05 24 f9 25236
8575 fb03 b0 BCS 57 02 05 24 f9 25238
8576 fb05 c9 CMP 57 02 05 24 f9 25240
8577 fb07 d0 BNE 57 02 05 27 f9 25242
8578 fb09 60 RTS 57 02 05 27 f9 25244
8579 f5d0 a5 LDA 57 02 05 27 fb 25250
8580 f5d2 c9 CMP 14 02 05 25 fb 25253
8581 f5d4 f0 BEQ 14 02 05 27 fb 25255
8582 f5d8 c8 INY 14 02 05 27 fb 25258
8583 f5d9 a9 LDA 14 02 06 25 fb 25260
8584 f5db 85 STA 37 02 06 25 fb 25262
8585 f5dd 20 JSR 37 02 06 25 fb 25265
8586 fb0a 24 BIT 37 02 06 25 f9 25271
8587 fb0c 38 SEC 37 02 06 e5 f9 25274
8588 fb0d a9 LDA 37 02 06 e5 f9 25276
8589 fb0f 60 RTS 75 02 06 65 f9 25278
8590 f5e0 67 *RRA 75 02 06 65 fb 25284
8591 f5e2 ea NOP 11 02 06 25 fb 25289
8592 f5e3 ea NOP 11 02 06 25 fb 25291
8593 f5e4 ea NOP 11 02 06 25 fb 25293
8594 f5e5 ea NOP 11 02 06 25 fb 25295
8595 f5e6 20 JSR 11 02 06 25 fb 25297
8596 fb10 70 BVS 11 02 06 25 f9 25303
8597 fb12 30 BMI 11 02 06 25 f9 25305
8598 fb14 90 BCC 11 02 06 25 f9 25307
8599 fb16 c9 CMP 11 02 06 25 f9 25309
8600 fb18 d0 BNE 11 02 06 27 f9 25311
8601 fb1a 60 RTS 11 02 06 27 f9 25313
8602 f5e9 a5 LDA 11 02 06 27 fb 25319
8603 f5eb c9 CMP 9b 02 06 a5 fb 25322
8604 f5ed f0 BEQ 9b 02 06 27 fb 25324
8605 f5f1 c8 INY 9b 02 06 27 fb 25327
8606 f5f2 a9 LDA 9b 02 07 25 fb 25329
8607 f5f4 8d STA a5 02 07 a5 fb 25331
8608 f5f7 20 JSR a5 02 07 a5 fb 25335
8609 fae9 24 BIT a5 02 07 a5 f9 25341
8610 faeb 18 CLC a5 02 07 e5 f9 25344
8611 faec a9 LDA a5 02 07 e4 f9 25346
8612 faee 60 RTS b2 02 07 e4 f9 25348
8613 f5fa 6f *RRA b2 02 07 e4 fb 25354
8614 f5fd ea NOP 05 02 07 25 fb 25360
8615 f5fe ea NOP 05 02 07 25 fb 25362
8616 f5ff ea NOP 05 02 07 25 fb 25364
8617 f600 ea NOP 05 02 07 25 fb 25366
8618 f601 20 JSR 05 02 07 25 fb 25368
8619 faef 70 BVS 05 02 07 25 f9 25374
8620 faf1 90 BCC 05 02 07 25 f9 25376
8621 faf3 30 BMI 05 02 07 25 f9 25378
8622 faf5 c9 CMP 05 02 07 25 f9 25380
8623 faf7 d0 BNE 05 02 07 27 f9 25382
8624 faf9 60 RTS 05 02 07 27 f9 25384
8625 f604 ad LDA 05 02 07 27 fb 25390
8626 f607 c9 CMP 52 02 07 25 fb 25394
8627 f609 f0 BEQ 52 02 07 27 fb 25396
8628 f60d c8 INY 52 02 07 27 fb 25399
8629 f60e a9 LDA 52 02 08 25 fb 25401
8630 f610 8d STA 29 02 08 25 fb 25403
8631 f613 20 JSR 29 02 08 25 fb 25407
8632 fafa b8 CLV 29 02 08 25 f9 25413
8633 fafb 18 CLC 29 02 08 25 f9 25415
8634 fafc a9 LDA 29 02 08 24 f9 25417
8635 fafe 60 RTS 42 02 08 24 f9 25419
8636 f616 6f *RRA 42 02 08 24 fb 25425
8637 f619 ea NOP 57 02 08 24 fb 25431
8638 f61a ea NOP 57 02 08 24 fb 25433
8639 f61b ea NOP 57 02 08 24 fb 25435
8640 f61c ea NOP 57 02 08 24 fb 25437
8641 f61d 20 JSR 57 02 08 24 fb 25439
8642 faff 70 BVS 57 02 08 24 f9 25445
8643 fb01 30 BMI 57 02 08 24 f9 25447
8644 fb03 b0 BCS 57 02 08 24 f9 25449
8645 fb05 c9 CMP 57 02 08 24 f9 25451
8646 fb07 d0 BNE 57 02 08 27 f9 25453
8647 fb09 60 RTS 57 02 08 27 f9 25455
8648 f620 ad LDA 57 02 08 27 fb 25461
8649 f623 c9 CMP 14 02 08 25 fb 25465
8650 f625 f0 BEQ 14 02 08 27 fb 25467
8651 f629 c8 INY 14 02 08 27 fb 25470
8652 f62a a9 LDA 14 02 09 25 fb 25472
8653 f62c 8d STA 37 02 09 25 fb 25474
8654 f62f 20 JSR 37 02 09 25 fb 25478
8655 fb0a 24 BIT 37 02 09 25 f9 25484
8656 fb0c 38 SEC 37 02 09 e5 f9 25487
8657 fb0d a9 LDA 37 02 09 e5 f9 25489
8658 fb0f 60 RTS 75 02 09 65 f9 25491
8659 f632 6f *RRA 75 02 09 65 fb 25497
8660 f635 ea NOP 11 02 09 25 fb 25503
8661 f636 ea NOP 11 02 09 25 fb 25505
8662 f637 ea NOP 11 02 09 25 fb 25507
8663 f638 ea NOP 11 02 09 25 fb 25509
8664 f639 20 JSR 11 02 09 25 fb 25511
8665 fb10 70 BVS 11 02 09 25 f9 25517
8666 fb12 30 BMI 11 02 09 25 f9 25519
8667 fb14 90 BCC 11 02 09 25 f9 25521
8668 fb16 c9 CMP 11 02 09 25 f9 25523
8669 fb18 d0 BNE 11 02 09 27 f9 25525
8670 fb1a 60 RTS 11 02 09 27 f9 25527
8671 f63c ad LDA 11 02 09 27 fb 25533
8672 f63f c9 CMP 9b 02 09 a5 fb 25537
8673 f641 f0 BEQ 9b 02 09 27 fb 25539
8674 f645 a9 LDA 9b 02 09 27 fb 25542
8675 f647 8d STA a5 02 09 a5 fb 25544
8676 f64a a9 LDA a5 02 09 a5 fb 25548
8677 f64c 85 STA 48 02 09 25 fb 25550
8678 f64e a9 LDA 48 02 09 25 fb 25553
8679 f650 85 STA 05 02 09 25 fb 25555
8680 f652 a0 LDY 05 02 09 25 fb 25558
8681 f654 20 JSR 05 02 ff a5 fb 25560
8682 fae9 24 BIT 05 02 ff a5 f9 25566
8683 faeb 18 CLC 05 02 ff e5 f9 25569
8684 faec a9 LDA 05 02 ff e4 f9 25571
8685 faee 60 RTS b2 02 ff e4 f9 25573
8686 f657 73 *RRA b2 02 ff e4 fb 25579
8687 f659 ea NOP 05 02 ff 25 fb 25587
8688 f65a ea NOP 05 02 ff 25 fb 25589
8689 f65b 08 PHP 05 02 ff 25 fb 25591
8690 f65c 48 PHA 05 02 ff 25 fa 25594
8691 f65d a0 LDY 05 02 ff 25 f9 25597
8692 f65f 68 PLA 05 02 0a 25 f9 25599
8693 f660 28 PLP 05 02 0a 25 fa 25603
8694 f661 20 JSR 05 02 0a 25 fb 25607
8695 faef 70 BVS 05 02 0a 25 f9 25613
8696 faf1 90 BCC 05 02 0a 25 f9 25615
8697 faf3 30 BMI 05 02 0a 25 f9 25617
8698 faf5 c9 CMP 05 02 0a 25 f9 25619
8699 faf7 d0 BNE 05 02 0a 27 f9 25621
8700 faf9 60 RTS 05 02 0a 27 f9 25623
8701 f664 ad LDA 05 02 0a 27 fb 25629
8702 f667 c9 CMP 52 02 0a 25 fb 25633
8703 f669 f0 BEQ 52 02 0a 27 fb 25635
8704 f66d a0 LDY 52 02 0a 27 fb 25638
8705 f66f a9 LDA 52 02 ff a5 fb 25640
8706 f671 8d STA 29 02 ff 25 fb 25642
8707 f674 20 JSR 29 02 ff 25 fb 25646
8708 fafa b8 CLV 29 02 ff 25 f9 25652
8709 fafb 18 CLC 29 02 ff 25 f9 25654
8710 fafc a9 LDA 29 02 ff 24 f9 25656
8711 fafe 60 RTS 42 02 ff 24 f9 25658
8712 f677 73 *RRA 42 02 ff 24 fb 25664
8713 f679 ea NOP 57 02 ff 24 fb 25672
8714 f67a ea NOP 57 02 ff 24 fb 25674
8715 f67b 08 PHP 57 02 ff 24 fb 25676
8716 f67c 48 PHA 57 02 ff 24 fa 25679
8717 f67d a0 LDY 57 02 ff 24 f9 25682
8718 f67f 68 PLA 57 02 0b 24 f9 25684
8719 f680 28 PLP 57 02 0b 24 fa 25688
8720 f681 20 JSR 57 02 0b 24 fb 25692
8721 faff 70 BVS 57 02 0b 24 f9 25698
8722 fb01 30 BMI 57 02 0b 24 f9 25700
8723 fb03 b0 BCS 57 02 0b 24 f9 25702
8724 fb05 c9 CMP 57 02 0b 24 f9 25704
8725 fb07 d0 BNE 57 02 0b 27 f9 25706
8726 fb09 60 RTS 57 02 0b 27 f9 25708
8727 f684 ad LDA 57 02 0b 27 fb 25714
8728 f687 c9 CMP 14 02 0b 25 fb 25718
8729 f689 f0 BEQ 14 02 0b 27 fb 25720
8730 f68d a0 LDY 14 02 0b 27 fb 25723
8731 f68f a9 LDA 14 02 ff a5 fb 25725
8732 f691 8d STA 37 02 ff 25 fb 25727
8733 f694 20 JSR 37 02 ff 25 fb 25731
8734 fb0a 24 BIT 37 02 ff 25 f9 25737
8735 fb0c 38 SEC 37 02 ff e5 f9 25740
8736 fb0d a9 LDA 37 02 ff e5 f9 25742
8737 fb0f 60 RTS 75 02 ff 65 f9 25744
8738 f697 73 *RRA 75 02 ff 65 fb 25750
8739 f699 ea NOP 11 02 ff 25 fb 25758
8740 f69a ea NOP 11 02 ff 25 fb 25760
8741 f69b 08 PHP 11 02 ff 25 fb 25762
8742 f69c 48 PHA 11 02 ff 25 fa 25765
8743 f69d a0 LDY 11 02 ff 25 f9 25768
8744 f69f 68 PLA 11 02 0c 25 f9 25770
8745 f6a0 28 PLP 11 02 0c 25 fa 25774
8746 f6a1 20 JSR 11 02 0c 25 fb 25778
8747 fb10 70 BVS 11 02 0c 25 f9 25784
8748 fb12 30 BMI 11 02 0c 25 f9 25786
8749 fb14 90 BCC 11 02 0c 25 f9 25788
8750 fb16 c9 CMP 11 02 0c 25 f9 25790
8751 fb18 d0 BNE 11 02 0c 27 f9 25792
8752 fb1a 60 RTS 11 02 0c 27 f9 25794
8753 f6a4 ad LDA 11 02 0c 27 fb 25800
8754 f6a7 c9 CMP 9b 02 0c a5 fb 25804
8755 f6a9 f0 BEQ 9b 02 0c 27 fb 25806
8756 f6ad a0 LDY 9b 02 0c 27 fb 25809
8757 f6af a2 LDX 9b 02 0d 25 fb 25811
8758 f6b1 a9 LDA 9b ff 0d a5 fb 25813
8759 f6b3 85 STA a5 ff 0d a5 fb 25815
8760 f6b5 20 JSR a5 ff 0d a5 fb 25818
8761 fae9 24 BIT a5 ff 0d a5 f9 25824
8762 faeb 18 CLC a5 ff 0d e5 f9 25827
8763 faec a9 LDA a5 ff 0d e4 f9 25829
8764 faee 60 RTS b2 ff 0d e4 f9 25831
8765 f6b8 77 *RRA b2 ff 0d e4 fb 25837
8766 f6ba ea NOP 05 ff 0d 25 fb 25843
8767 f6bb ea NOP 05 ff 0d 25 fb 25845
8768 f6bc ea NOP 05 ff 0d 25 fb 25847
8769 f6bd ea NOP 05 ff 0d 25 fb 25849
8770 f6be 20 JSR 05 ff 0d 25 fb 25851
8771 faef 70 BVS 05 ff 0d 25 f9 25857
8772 faf1 90 BCC 05 ff 0d 25 f9 25859
8773 faf3 30 BMI 05 ff 0d 25 f9 25861
8774 faf5 c9 CMP 05 ff 0d 25 f9 25863
8775 faf7 d0 BNE 05 ff 0d 27 f9 25865
8776 faf9 60 RTS 05 ff 0d 27 f9 25867
8777 f6c1 a5 LDA 05 ff 0d 27 fb 25873
8778 f6c3 c9 CMP 52 ff 0d 25 fb 25876
8779 f6c5 f0 BEQ 52 ff 0d 27 fb 25878
8780 f6c9 c8 INY 52 ff 0d 27 fb 25881
8781 f6ca a9 LDA 52 ff 0e 25 fb 25883
8782 f6cc 85 STA 29 ff 0e 25 fb 25885
8783 f6ce 20 JSR 29 ff 0e 25 fb 25888
8784 fafa b8 CLV 29 ff 0e 25 f9 25894
8785 fafb 18 CLC 29 ff 0e 25 f9 25896
8786 fafc a9 LDA 29 ff 0e 24 f9 25898
8787 fafe 60 RTS 42 ff 0e 24 f9 25900
8788 f6d1 77 *RRA 42 ff 0e 24 fb 25906
8789 f6d3 ea NOP 57 ff 0e 24 fb 25912
8790 f6d4 ea NOP 57 ff 0e 24 fb 25914
8791 f6d5 ea NOP 57 ff 0e 24 fb 25916
8792 f6d6 ea NOP 57 ff 0e 24 fb 25918
8793 f6d7 20 JSR 57 ff 0e 24 fb 25920
8794 faff 70 BVS 57 ff 0e 24 f9 25926
8795 fb01 30 BMI 57 ff 0e 24 f9 25928
8796 fb03 b0 BCS 57 ff 0e 24 f9 25930
8797 fb05 c9 CMP 57 ff 0e 24 f9 25932
8798 fb07 d0 BNE 57 ff 0e 27 f9 25934
8799 fb09 60 RTS 57 ff 0e 27 f9 25936
8800 f6da a5 LDA 57 ff 0e 27 fb 25942
8801 f6dc c9 CMP 14 ff 0e 25 fb 25945
8802 f6de f0 BEQ 14 ff 0e 27 fb 25947
8803 f6e2 c8 INY 14 ff 0e 27 fb 25950
8804 f6e3 a9 LDA 14 ff 0f 25 fb 25952
8805 f6e5 85 STA 37 ff 0f 25 fb 25954
8806 f6e7 20 JSR 37 ff 0f 25 fb 25957
8807 fb0a 24 BIT 37 ff 0f 25 f9 25963
8808 fb0c 38 SEC 37 ff 0f e5 f9 25966
8809 fb0d a9 LDA 37 ff 0f e5 f9 25968
8810 fb0f 60 RTS 75 ff 0f 65 f9 25970
8811 f6ea 77 *RRA 75 ff 0f 65 fb 25976
8812 f6ec ea NOP 11 ff 0f 25 fb 25982
8813 f6ed ea NOP 11 ff 0f 25 fb 25984
8814 f6ee ea NOP 11 ff 0f 25 fb 25986
8815 f6ef ea NOP 11 ff 0f 25 fb 25988
8816 f6f0 20 JSR 11 ff 0f 25 fb 25990
8817 fb10 70 BVS 11 ff 0f 25 f9 25996
8818 fb12 30 BMI 11 ff 0f 25 f9 25998
8819 fb14 90 BCC 11 ff 0f 25 f9 26000
8820 fb16 c9 CMP 11 ff 0f 25 f9 26002
8821 fb18 d0 BNE 11 ff 0f 27 f9 26004
8822 fb1a 60 RTS 11 ff 0f 27 f9 26006
8823 f6f3 a5 LDA 11 ff 0f 27 fb 26012
8824 f6f5 c9 CMP 9b ff 0f a5 fb 26015
8825 f6f7 f0 BEQ 9b ff 0f 27 fb 26017
8826 f6fb a9 LDA 9b ff 0f 27 fb 26020
8827 f6fd 8d STA a5 ff 0f a5 fb 26022
8828 f700 a0 LDY a5 ff 0f a5 fb 26026
8829 f702 20 JSR a5 ff ff a5 fb 26028
8830 fae9 24 BIT a5 ff ff a5 f9 26034
8831 faeb 18 CLC a5 ff ff e5 f9 26037
8832 faec a9 LDA a5 ff ff e4 f9 26039
8833 faee 60 RTS b2 ff ff e4 f9 26041
8834 f705 7b *RRA b2 ff ff e4 fb 26047
8835 f708 ea NOP 05 ff ff 25 fb 26054
8836 f709 ea NOP 05 ff ff 25 fb 26056
8837 f70a 08 PHP 05 ff ff 25 fb 26058
8838 f70b 48 PHA 05 ff ff 25 fa 26061
8839 f70c a0 LDY 05 ff ff 25 f9 26064
8840 f70e 68 PLA 05 ff 10 25 f9 26066
8841 f70f 28 PLP 05 ff 10 25 fa 26070
8842 f710 20 JSR 05 ff 10 25 fb 26074
8843 faef 70 BVS 05 ff 10 25 f9 26080
8844 faf1 90 BCC 05 ff 10 25 f9 26082
8845 faf3 30 BMI 05 ff 10 25 f9 26084
8846 faf5 c9 CMP 05 ff 10 25 f9 26086
8847 faf7 d0 BNE 05 ff 10 27 f9 26088
8848 faf9 60 RTS 05 ff 10 27 f9 26090
8849 f713 ad LDA 05 ff 10 27 fb 26096
8850 f716 c9 CMP 52 ff 10 25 fb 26100
8851 f718 f0 BEQ 52 ff 10 27 fb 26102
8852 f71c a0 LDY 52 ff 10 27 fb 26105
8853 f71e a9 LDA 52 ff ff a5 fb 26107
8854 f720 8d STA 29 ff ff 25 fb 26109
8855 f723 20 JSR 29 ff ff 25 fb 26113
8856 fafa b8 CLV 29 ff ff 25 f9 26119
8857 fafb 18 CLC 29 ff ff 25 f9 26121
8858 fafc a9 LDA 29 ff ff 24 f9 26123
8859 fafe 60 RTS 42 ff ff 24 f9 26125
8860 f726 7b *RRA 42 ff ff 24 fb 26131
8861 f729 ea NOP 57 ff ff 24 fb 26138
8862 f72a ea NOP 57 ff ff 24 fb 26140
8863 f72b 08 PHP 57 ff ff 24 fb 26142
8864 f72c 48 PHA 57 ff ff 24 fa 26145
8865 f72d a0 LDY 57 ff ff 24 f9 26148
8866 f72f 68 PLA 57 ff 11 24 f9 26150
8867 f730 28 PLP 57 ff 11 24 fa 26154
8868 f731 20 JSR 57 ff 11 24 fb 26158
8869 faff 70 BVS 57 ff 11 24 f9 26164
8870 fb01 30 BMI 57 ff 11 24 f9 26166
8871 fb03 b0 BCS 57 ff 11 24 f9 26168
8872 fb05 c9 CMP 57 ff 11 24 f9 26170
8873 fb07 d0 BNE 57 ff 11 27 f9 26172
8874 fb09 60 RTS 57 ff 11 27 f9 26174
8875 f734 ad LDA 57 ff 11 27 fb 26180
8876 f737 c9 CMP 14 ff 11 25 fb 26184
8877 f739 f0 BEQ 14 ff 11 27 fb 26186
8878 f73d a0 LDY 14 ff 11 27 fb 26189
8879 f73f a9 LDA 14 ff ff a5 fb 26191
8880 f741 8d STA 37 ff ff 25 fb 26193
8881 f744 20 JSR 37 ff ff 25 fb 26197
8882 fb0a 24 BIT 37 ff ff 25 f9 26203
8883 fb0c 38 SEC 37 ff ff e5 f9 26206
8884 fb0d a9 LDA 37 ff ff e5 f9 26208
8885 fb0f 60 RTS 75 ff ff 65 f9 26210
8886 f747 7b *RRA 75 ff ff 65 fb 26216
8887 f74a ea NOP 11 ff ff 25 fb 26223
8888 f74b ea NOP 11 ff ff 25 fb 26225
8889 f74c 08 PHP 11 ff ff 25 fb 26227
8890 f74d 48 PHA 11 ff ff 25 fa 26230
8891 f74e a0 LDY 11 ff ff 25 f9 26233
8892 f750 68 PLA 11 ff 12 25 f9 26235
8893 f751 28 PLP 11 ff 12 25 fa 26239
8894 f752 20 JSR 11 ff 12 25 fb 26243
8895 fb10 70 BVS 11 ff 12 25 f9 26249
8896 fb12 30 BMI 11 ff 12 25 f9 26251
8897 fb14 90 BCC 11 ff 12 25 f9 26253
8898 fb16 c9 CMP 11 ff 12 25 f9 26255
8899 fb18 d0 BNE 11 ff 12 27 f9 26257
8900 fb1a 60 RTS 11 ff 12 27 f9 26259
8901 f755 ad LDA 11 ff 12 27 fb 26265
8902 f758 c9 CMP 9b ff 12 a5 fb 26269
8903 f75a f0 BEQ 9b ff 12 27 fb 26271
8904 f75e a0 LDY 9b ff 12 27 fb 26274
8905 f760 a2 LDX 9b ff 13 25 fb 26276
8906 f762 a9 LDA 9b ff 13 a5 fb 26278
8907 f764 8d STA a5 ff 13 a5 fb 26280
8908 f767 20 JSR a5 ff 13 a5 fb 26284
8909 fae9 24 BIT a5 ff 13 a5 f9 26290
8910 faeb 18 CLC a5 ff 13 e5 f9 26293
8911 faec a9 LDA a5 ff 13 e4 f9 26295
8912 faee 60 RTS b2 ff 13 e4 f9 26297
8913 f76a 7f *RRA b2 ff 13 e4 fb 26303
8914 f76d ea NOP 05 ff 13 25 fb 26310
8915 f76e ea NOP 05 ff 13 25 fb 26312
8916 f76f ea NOP 05 ff 13 25 fb 26314
8917 f770 ea NOP 05 ff 13 25 fb 26316
8918 f771 20 JSR 05 ff 13 25 fb 26318
8919 faef 70 BVS 05 ff 13 25 f9 26324
8920 faf1 90 BCC 05 ff 13 25 f9 26326
8921 faf3 30 BMI 05 ff 13 25 f9 26328
8922 faf5 c9 CMP 05 ff 13 25 f9 26330
8923 faf7 d0 BNE 05 ff 13 27 f9 26332
8924 faf9 60 RTS 05 ff 13 27 f9 26334
8925 f774 ad LDA 05 ff 13 27 fb 26340
8926 f777 c9 CMP 52 ff 13 25 fb 26344
8927 f779 f0 BEQ 52 ff 13 27 fb 26346
8928 f77d c8 INY 52 ff 13 27 fb 26349
8929 f77e a9 LDA 52 ff 14 25 fb 26351
8930 f780 8d STA 29 ff 14 25 fb 26353
8931 f783 20 JSR 29 ff 14 25 fb 26357
8932 fafa b8 CLV 29 ff 14 25 f9 26363
8933 fafb 18 CLC 29 ff 14 25 f9 26365
8934 fafc a9 LDA 29 ff 14 24 f9 26367
8935 fafe 60 RTS 42 ff 14 24 f9 26369
8936 f786 7f *RRA 42 ff 14 24 fb 26375
8937 f789 ea NOP 57 ff 14 24 fb 26382
8938 f78a ea NOP 57 ff 14 24 fb 26384
8939 f78b ea NOP 57 ff 14 24 fb 26386
8940 f78c ea NOP 57 ff 14 24 fb 26388
8941 f78d 20 JSR 57 ff 14 24 fb 26390
8942 faff 70 BVS 57 ff 14 24 f9 26396
8943 fb01 30 BMI 57 ff 14 24 f9 26398
8944 fb03 b0 BCS 57 ff 14 24 f9 26400
8945 fb05 c9 CMP 57 ff 14 24 f9 26402
8946 fb07 d0 BNE 57 ff 14 27 f9 26404
8947 fb09 60 RTS 57 ff 14 27 f9 26406
8948 f790 ad LDA 57 ff 14 27 fb 26412
8949 f793 c9 CMP 14 ff 14 25 fb 26416
8950 f795 f0 BEQ 14 ff 14 27 fb 26418
8951 f799 c8 INY 14 ff 14 27 fb 26421
8952 f79a a9 LDA 14 ff 15 25 fb 26423
8953 f79c 8d STA 37 ff 15 25 fb 26425
8954 f79f 20 JSR 37 ff 15 25 fb 26429
8955 fb0a 24 BIT 37 ff 15 25 f9 26435
8956 fb0c 38 SEC 37 ff 15 e5 f9 26438
8957 fb0d a9 LDA 37 ff 15 e5 f9 26440
8958 fb0f 60 RTS 75 ff 15 65 f9 26442
8959 f7a2 7f *RRA 75 ff 15 65 fb 26448
8960 f7a5 ea NOP 11 ff 15 25 fb 26455
8961 f7a6 ea NOP 11 ff 15 25 fb 26457
8962 f7a7 ea NOP 11 ff 15 25 fb 26459
8963 f7a8 ea NOP 11 ff 15 25 fb 26461
8964 f7a9 20 JSR 11 ff 15 25 fb 26463
8965 fb10 70 BVS 11 ff 15 25 f9 26469
8966 fb12 30 BMI 11 ff 15 25 f9 26471
8967 fb14 90 BCC 11 ff 15 25 f9 26473
8968 fb16 c9 CMP 11 ff 15 25 f9 26475
8969 fb18 d0 BNE 11 ff 15 27 f9 26477
8970 fb1a 60 RTS 11 ff 15 27 f9 26479
8971 f7ac ad LDA 11 ff 15 27 fb 26485
8972 f7af c9 CMP 9b ff 15 a5 fb 26489
8973 f7b1 f0 BEQ 9b ff 15 27 fb 26491
8974 f7b5 60 RTS 9b ff 15 27 fb 26494
8975 c655 a5 LDA 9b ff 15 27 fd 26500
8976 c657 05 ORA 00 ff 15 27 fd 26503
8977 c659 05 ORA 00 ff 15 27 fd 26506
8978 c65b f0 BEQ 00 ff 15 27 fd 26509
8979 c66b 20 JSR 00 ff 15 27 fd 26512
8980 c689 a9 LDA 00 ff 15 27 fb 26518
8981 c68b 8d STA 02 ff 15 25 fb 26520
8982 c68e a9 LDA 02 ff 15 25 fb 26524
8983 c690 8d STA 3f ff 15 25 fb 26526
8984 c693 a9 LDA 3f ff 15 25 fb 26530
8985 c695 8d STA 9a ff 15 a5 fb 26532
8986 c698 a9 LDA 9a ff 15 a5 fb 26536
8987 c69a 8d STA ff ff 15 a5 fb 26538
8988 c69d a9 LDA ff ff 15 a5 fb 26542
8989 c69f 8d STA 00 ff 15 27 fb 26544
8990 c6a2 60 RTS 00 ff 15 27 fb 26548
8991 c66e 60 RTS 00 ff 15 27 fd 26554
